libyang-cpp.so.0.16 libyang-cpp0.16 #MINVER#
* Build-Depends-Package: libyang-cpp-dev
 _ZN7libyang10Refine_Mod4listEv@Base 0.16.52
 _ZN7libyang10Refine_ModC1E14lys_refine_modtSt10shared_ptrINS_7DeleterEE@Base 0.16.52
 _ZN7libyang10Refine_ModC2E14lys_refine_modtSt10shared_ptrINS_7DeleterEE@Base 0.16.52
 _ZN7libyang10Refine_ModD1Ev@Base 0.16.52
 _ZN7libyang10Refine_ModD2Ev@Base 0.16.52
 _ZN7libyang11Schema_Node13xpath_atomizeE14lyxp_node_typePKci@Base 0.16.52
 _ZN7libyang11Schema_Node13xpath_atomizeEi@Base 0.16.52
 _ZN7libyang11Schema_Node19child_instantiablesEi@Base 0.16.52
 _ZN7libyang11Schema_Node3extEv@Base 0.16.52
 _ZN7libyang11Schema_Node4nextEv@Base 0.16.52
 _ZN7libyang11Schema_Node4pathB5cxx11Ei@Base 0.16.52
 _ZN7libyang11Schema_Node4prevEv@Base 0.16.52
 _ZN7libyang11Schema_Node5childEv@Base 0.16.52
 _ZN7libyang11Schema_Node6moduleEv@Base 0.16.52
 _ZN7libyang11Schema_Node6parentEv@Base 0.16.52
 _ZN7libyang11Schema_Node8tree_dfsEv@Base 0.16.52
 _ZN7libyang11Schema_Node8tree_forEv@Base 0.16.52
 _ZN7libyang11Schema_Node9find_pathEPKc@Base 0.16.52
 _ZN7libyang11Schema_NodeC1EP8lys_nodeSt10shared_ptrINS_7DeleterEE@Base 0.16.52
 _ZN7libyang11Schema_NodeC2EP8lys_nodeSt10shared_ptrINS_7DeleterEE@Base 0.16.52
 _ZN7libyang11Schema_NodeD0Ev@Base 0.16.52
 _ZN7libyang11Schema_NodeD1Ev@Base 0.16.52
 _ZN7libyang11Schema_NodeD2Ev@Base 0.16.52
 _ZN7libyang12Ext_Instance3extEv@Base 0.16.52
 _ZN7libyang12Ext_InstanceC1EP16lys_ext_instanceSt10shared_ptrINS_7DeleterEE@Base 0.16.52
 _ZN7libyang12Ext_InstanceC2EP16lys_ext_instanceSt10shared_ptrINS_7DeleterEE@Base 0.16.52
 _ZN7libyang12Ext_InstanceD1Ev@Base 0.16.52
 _ZN7libyang12Ext_InstanceD2Ev@Base 0.16.52
 _ZN7libyang13Type_Info_Num5rangeEv@Base 0.16.52
 _ZN7libyang13Type_Info_NumC1EP17lys_type_info_numSt10shared_ptrINS_7DeleterEE@Base 0.16.52
 _ZN7libyang13Type_Info_NumC2EP17lys_type_info_numSt10shared_ptrINS_7DeleterEE@Base 0.16.52
 _ZN7libyang13Type_Info_NumD1Ev@Base 0.16.52
 _ZN7libyang13Type_Info_NumD2Ev@Base 0.16.52
 _ZN7libyang13Type_Info_Str6lengthEv@Base 0.16.52
 _ZN7libyang13Type_Info_Str8patternsEv@Base 0.16.52
 _ZN7libyang13Type_Info_StrC1EP17lys_type_info_strSt10shared_ptrINS_7DeleterEE@Base 0.16.52
 _ZN7libyang13Type_Info_StrC2EP17lys_type_info_strSt10shared_ptrINS_7DeleterEE@Base 0.16.52
 _ZN7libyang13Type_Info_StrD1Ev@Base 0.16.52
 _ZN7libyang13Type_Info_StrD2Ev@Base 0.16.52
 _ZN7libyang13get_ly_errorsESt10shared_ptrINS_7ContextEE@Base 0.16.52
 _ZN7libyang14Type_Info_Bits3bitEv@Base 0.16.52
 _ZN7libyang14Type_Info_BitsC1EP18lys_type_info_bitsSt10shared_ptrINS_7DeleterEE@Base 0.16.52
 _ZN7libyang14Type_Info_BitsC2EP18lys_type_info_bitsSt10shared_ptrINS_7DeleterEE@Base 0.16.52
 _ZN7libyang14Type_Info_BitsD1Ev@Base 0.16.52
 _ZN7libyang14Type_Info_BitsD2Ev@Base 0.16.52
 _ZN7libyang14Type_Info_InstC1EP18lys_type_info_instSt10shared_ptrINS_7DeleterEE@Base 0.16.52
 _ZN7libyang14Type_Info_InstC2EP18lys_type_info_instSt10shared_ptrINS_7DeleterEE@Base 0.16.52
 _ZN7libyang14Type_Info_InstD1Ev@Base 0.16.52
 _ZN7libyang14Type_Info_InstD2Ev@Base 0.16.52
 _ZN7libyang14Type_Info_Lref6targetEv@Base 0.16.52
 _ZN7libyang14Type_Info_LrefC1EP18lys_type_info_lrefSt10shared_ptrINS_7DeleterEE@Base 0.16.52
 _ZN7libyang14Type_Info_LrefC2EP18lys_type_info_lrefSt10shared_ptrINS_7DeleterEE@Base 0.16.52
 _ZN7libyang14Type_Info_LrefD1Ev@Base 0.16.52
 _ZN7libyang14Type_Info_LrefD2Ev@Base 0.16.52
 _ZN7libyang15Refine_Mod_ListC1EP19lys_refine_mod_listSt10shared_ptrINS_7DeleterEE@Base 0.16.52
 _ZN7libyang15Refine_Mod_ListC2EP19lys_refine_mod_listSt10shared_ptrINS_7DeleterEE@Base 0.16.52
 _ZN7libyang15Refine_Mod_ListD1Ev@Base 0.16.52
 _ZN7libyang15Refine_Mod_ListD2Ev@Base 0.16.52
 _ZN7libyang15Schema_Node_Grp4tpdfEv@Base 0.16.52
 _ZN7libyang15Schema_Node_GrpD0Ev@Base 0.16.52
 _ZN7libyang15Schema_Node_GrpD1Ev@Base 0.16.52
 _ZN7libyang15Schema_Node_GrpD2Ev@Base 0.16.52
 _ZN7libyang15Type_Info_Dec645rangeEv@Base 0.16.52
 _ZN7libyang15Type_Info_Dec64C1EP19lys_type_info_dec64St10shared_ptrINS_7DeleterEE@Base 0.16.52
 _ZN7libyang15Type_Info_Dec64C2EP19lys_type_info_dec64St10shared_ptrINS_7DeleterEE@Base 0.16.52
 _ZN7libyang15Type_Info_Dec64D1Ev@Base 0.16.52
 _ZN7libyang15Type_Info_Dec64D2Ev@Base 0.16.52
 _ZN7libyang15Type_Info_Enums3enmEv@Base 0.16.52
 _ZN7libyang15Type_Info_EnumsC1EP19lys_type_info_enumsSt10shared_ptrINS_7DeleterEE@Base 0.16.52
 _ZN7libyang15Type_Info_EnumsC2EP19lys_type_info_enumsSt10shared_ptrINS_7DeleterEE@Base 0.16.52
 _ZN7libyang15Type_Info_EnumsD1Ev@Base 0.16.52
 _ZN7libyang15Type_Info_EnumsD2Ev@Base 0.16.52
 _ZN7libyang15Type_Info_Ident3refEv@Base 0.16.52
 _ZN7libyang15Type_Info_IdentC1EP19lys_type_info_identSt10shared_ptrINS_7DeleterEE@Base 0.16.52
 _ZN7libyang15Type_Info_IdentC2EP19lys_type_info_identSt10shared_ptrINS_7DeleterEE@Base 0.16.52
 _ZN7libyang15Type_Info_IdentD1Ev@Base 0.16.52
 _ZN7libyang15Type_Info_IdentD2Ev@Base 0.16.52
 _ZN7libyang15Type_Info_Union5typesEv@Base 0.16.52
 _ZN7libyang15Type_Info_UnionC1EP19lys_type_info_unionSt10shared_ptrINS_7DeleterEE@Base 0.16.52
 _ZN7libyang15Type_Info_UnionC2EP19lys_type_info_unionSt10shared_ptrINS_7DeleterEE@Base 0.16.52
 _ZN7libyang15Type_Info_UnionD1Ev@Base 0.16.52
 _ZN7libyang15Type_Info_UnionD2Ev@Base 0.16.52
 _ZN7libyang15set_log_optionsEi@Base 0.16.52
 _ZN7libyang16Schema_Node_Case4whenEv@Base 0.16.52
 _ZN7libyang16Schema_Node_CaseD0Ev@Base 0.16.52
 _ZN7libyang16Schema_Node_CaseD1Ev@Base 0.16.52
 _ZN7libyang16Schema_Node_CaseD2Ev@Base 0.16.52
 _ZN7libyang16Schema_Node_Leaf4typeEv@Base 0.16.52
 _ZN7libyang16Schema_Node_Leaf4whenEv@Base 0.16.52
 _ZN7libyang16Schema_Node_Leaf5childEv@Base 0.16.52
 _ZN7libyang16Schema_Node_Leaf6is_keyEv@Base 0.16.52
 _ZN7libyang16Schema_Node_Leaf9backlinksEv@Base 0.16.52
 _ZN7libyang16Schema_Node_LeafD0Ev@Base 0.16.52
 _ZN7libyang16Schema_Node_LeafD1Ev@Base 0.16.52
 _ZN7libyang16Schema_Node_LeafD2Ev@Base 0.16.52
 _ZN7libyang16Schema_Node_List4keysEv@Base 0.16.52
 _ZN7libyang16Schema_Node_List4mustEv@Base 0.16.52
 _ZN7libyang16Schema_Node_List4tpdfEv@Base 0.16.52
 _ZN7libyang16Schema_Node_List4whenEv@Base 0.16.52
 _ZN7libyang16Schema_Node_List6uniqueEv@Base 0.16.52
 _ZN7libyang16Schema_Node_ListD0Ev@Base 0.16.52
 _ZN7libyang16Schema_Node_ListD1Ev@Base 0.16.52
 _ZN7libyang16Schema_Node_ListD2Ev@Base 0.16.52
 _ZN7libyang16Schema_Node_Uses3grpEv@Base 0.16.52
 _ZN7libyang16Schema_Node_Uses4whenEv@Base 0.16.52
 _ZN7libyang16Schema_Node_Uses6refineEv@Base 0.16.52
 _ZN7libyang16Schema_Node_Uses7augmentEv@Base 0.16.52
 _ZN7libyang16Schema_Node_UsesD0Ev@Base 0.16.52
 _ZN7libyang16Schema_Node_UsesD1Ev@Base 0.16.52
 _ZN7libyang16Schema_Node_UsesD2Ev@Base 0.16.52
 _ZN7libyang16Type_Info_Binary6lengthEv@Base 0.16.52
 _ZN7libyang16Type_Info_BinaryC1EP20lys_type_info_binarySt10shared_ptrINS_7DeleterEE@Base 0.16.52
 _ZN7libyang16Type_Info_BinaryC2EP20lys_type_info_binarySt10shared_ptrINS_7DeleterEE@Base 0.16.52
 _ZN7libyang16Type_Info_BinaryD1Ev@Base 0.16.52
 _ZN7libyang16Type_Info_BinaryD2Ev@Base 0.16.52
 _ZN7libyang17Data_Node_Anydata5childEv@Base 0.16.52
 _ZN7libyang17Data_Node_AnydataC1EP8lyd_nodeSt10shared_ptrINS_7DeleterEE@Base 0.16.52
 _ZN7libyang17Data_Node_AnydataC1ESt10shared_ptrINS_9Data_NodeEE@Base 0.16.52
 _ZN7libyang17Data_Node_AnydataC2EP8lyd_nodeSt10shared_ptrINS_7DeleterEE@Base 0.16.52
 _ZN7libyang17Data_Node_AnydataC2ESt10shared_ptrINS_9Data_NodeEE@Base 0.16.52
 _ZN7libyang17Data_Node_AnydataD1Ev@Base 0.16.52
 _ZN7libyang17Data_Node_AnydataD2Ev@Base 0.16.52
 _ZN7libyang17Schema_Node_Inout4mustEv@Base 0.16.52
 _ZN7libyang17Schema_Node_Inout4tpdfEv@Base 0.16.52
 _ZN7libyang17Schema_Node_InoutD0Ev@Base 0.16.52
 _ZN7libyang17Schema_Node_InoutD1Ev@Base 0.16.52
 _ZN7libyang17Schema_Node_InoutD2Ev@Base 0.16.52
 _ZN7libyang17Schema_Node_Notif4mustEv@Base 0.16.52
 _ZN7libyang17Schema_Node_Notif4tpdfEv@Base 0.16.52
 _ZN7libyang17Schema_Node_NotifD0Ev@Base 0.16.52
 _ZN7libyang17Schema_Node_NotifD1Ev@Base 0.16.52
 _ZN7libyang17Schema_Node_NotifD2Ev@Base 0.16.52
 _ZN7libyang17set_log_verbosityE12LY_LOG_LEVEL@Base 0.16.52
 _ZN7libyang18Schema_Node_Choice4dfltEv@Base 0.16.52
 _ZN7libyang18Schema_Node_Choice4whenEv@Base 0.16.52
 _ZN7libyang18Schema_Node_ChoiceD0Ev@Base 0.16.52
 _ZN7libyang18Schema_Node_ChoiceD1Ev@Base 0.16.52
 _ZN7libyang18Schema_Node_ChoiceD2Ev@Base 0.16.52
 _ZN7libyang18create_new_ContextEP6ly_ctx@Base 0.16.52
 _ZN7libyang19Data_Node_Leaf_List10wd_defaultEv@Base 0.16.52
 _ZN7libyang19Data_Node_Leaf_List11change_leafEPKc@Base 0.16.52
 _ZN7libyang19Data_Node_Leaf_List5childEv@Base 0.16.52
 _ZN7libyang19Data_Node_Leaf_List5valueEv@Base 0.16.52
 _ZN7libyang19Data_Node_Leaf_List9leaf_typeEv@Base 0.16.52
 _ZN7libyang19Data_Node_Leaf_ListC1EP8lyd_nodeSt10shared_ptrINS_7DeleterEE@Base 0.16.52
 _ZN7libyang19Data_Node_Leaf_ListC1ESt10shared_ptrINS_9Data_NodeEE@Base 0.16.52
 _ZN7libyang19Data_Node_Leaf_ListC2EP8lyd_nodeSt10shared_ptrINS_7DeleterEE@Base 0.16.52
 _ZN7libyang19Data_Node_Leaf_ListC2ESt10shared_ptrINS_9Data_NodeEE@Base 0.16.52
 _ZN7libyang19Data_Node_Leaf_ListD1Ev@Base 0.16.52
 _ZN7libyang19Data_Node_Leaf_ListD2Ev@Base 0.16.52
 _ZN7libyang19Schema_Node_Anydata4mustEv@Base 0.16.52
 _ZN7libyang19Schema_Node_Anydata4whenEv@Base 0.16.52
 _ZN7libyang19Schema_Node_AnydataD0Ev@Base 0.16.52
 _ZN7libyang19Schema_Node_AnydataD1Ev@Base 0.16.52
 _ZN7libyang19Schema_Node_AnydataD2Ev@Base 0.16.52
 _ZN7libyang19Schema_Node_Augment4whenEv@Base 0.16.52
 _ZN7libyang19Schema_Node_AugmentD0Ev@Base 0.16.52
 _ZN7libyang19Schema_Node_AugmentD1Ev@Base 0.16.52
 _ZN7libyang19Schema_Node_AugmentD2Ev@Base 0.16.52
 _ZN7libyang19check_libyang_errorEP6ly_ctx@Base 0.16.52
 _ZN7libyang20Schema_Node_Leaflist4dfltB5cxx11Ev@Base 0.16.52
 _ZN7libyang20Schema_Node_Leaflist4mustEv@Base 0.16.52
 _ZN7libyang20Schema_Node_Leaflist4typeEv@Base 0.16.52
 _ZN7libyang20Schema_Node_Leaflist4whenEv@Base 0.16.52
 _ZN7libyang20Schema_Node_Leaflist5childEv@Base 0.16.52
 _ZN7libyang20Schema_Node_Leaflist9backlinksEv@Base 0.16.52
 _ZN7libyang20Schema_Node_LeaflistD0Ev@Base 0.16.52
 _ZN7libyang20Schema_Node_LeaflistD1Ev@Base 0.16.52
 _ZN7libyang20Schema_Node_LeaflistD2Ev@Base 0.16.52
 _ZN7libyang20create_new_Data_NodeEP8lyd_node@Base 0.16.52
 _ZN7libyang21Schema_Node_Container4mustEv@Base 0.16.52
 _ZN7libyang21Schema_Node_Container4ptdfEv@Base 0.16.52
 _ZN7libyang21Schema_Node_Container4whenEv@Base 0.16.52
 _ZN7libyang21Schema_Node_ContainerD0Ev@Base 0.16.52
 _ZN7libyang21Schema_Node_ContainerD1Ev@Base 0.16.52
 _ZN7libyang21Schema_Node_ContainerD2Ev@Base 0.16.52
 _ZN7libyang22Schema_Node_Rpc_Action4tpdfEv@Base 0.16.52
 _ZN7libyang22Schema_Node_Rpc_ActionD0Ev@Base 0.16.52
 _ZN7libyang22Schema_Node_Rpc_ActionD1Ev@Base 0.16.52
 _ZN7libyang22Schema_Node_Rpc_ActionD2Ev@Base 0.16.52
 _ZN7libyang3Ext12ext_instanceEv@Base 0.16.52
 _ZN7libyang3Ext6moduleEv@Base 0.16.52
 _ZN7libyang3ExtC1EP7lys_extSt10shared_ptrINS_7DeleterEE@Base 0.16.52
 _ZN7libyang3ExtC2EP7lys_extSt10shared_ptrINS_7DeleterEE@Base 0.16.52
 _ZN7libyang3ExtD1Ev@Base 0.16.52
 _ZN7libyang3ExtD2Ev@Base 0.16.52
 _ZN7libyang3Set2rmESt10shared_ptrINS_11Schema_NodeEE@Base 0.16.52
 _ZN7libyang3Set2rmESt10shared_ptrINS_9Data_NodeEE@Base 0.16.52
 _ZN7libyang3Set3addESt10shared_ptrINS_11Schema_NodeEEi@Base 0.16.52
 _ZN7libyang3Set3addESt10shared_ptrINS_9Data_NodeEEi@Base 0.16.52
 _ZN7libyang3Set3dupEv@Base 0.16.52
 _ZN7libyang3Set4dataEv@Base 0.16.52
 _ZN7libyang3Set5cleanEv@Base 0.16.52
 _ZN7libyang3Set6schemaEv@Base 0.16.52
 _ZN7libyang3Set8containsESt10shared_ptrINS_11Schema_NodeEE@Base 0.16.52
 _ZN7libyang3Set8containsESt10shared_ptrINS_9Data_NodeEE@Base 0.16.52
 _ZN7libyang3Set8rm_indexEj@Base 0.16.52
 _ZN7libyang3SetC1EP6ly_setSt10shared_ptrINS_7DeleterEE@Base 0.16.52
 _ZN7libyang3SetC1Ev@Base 0.16.52
 _ZN7libyang3SetC2EP6ly_setSt10shared_ptrINS_7DeleterEE@Base 0.16.52
 _ZN7libyang3SetC2Ev@Base 0.16.52
 _ZN7libyang3SetD1Ev@Base 0.16.52
 _ZN7libyang3SetD2Ev@Base 0.16.52
 _ZN7libyang4Attr4nextEv@Base 0.16.52
 _ZN7libyang4Attr5valueEv@Base 0.16.52
 _ZN7libyang4AttrC1EP8lyd_attrSt10shared_ptrINS_7DeleterEE@Base 0.16.52
 _ZN7libyang4AttrC2EP8lyd_attrSt10shared_ptrINS_7DeleterEE@Base 0.16.52
 _ZN7libyang4AttrD1Ev@Base 0.16.52
 _ZN7libyang4AttrD2Ev@Base 0.16.52
 _ZN7libyang4Tpdf4typeEv@Base 0.16.52
 _ZN7libyang4TpdfC1EP8lys_tpdfSt10shared_ptrINS_7DeleterEE@Base 0.16.52
 _ZN7libyang4TpdfC2EP8lys_tpdfSt10shared_ptrINS_7DeleterEE@Base 0.16.52
 _ZN7libyang4TpdfD1Ev@Base 0.16.52
 _ZN7libyang4TpdfD2Ev@Base 0.16.52
 _ZN7libyang4Type3derEv@Base 0.16.52
 _ZN7libyang4Type3extEv@Base 0.16.52
 _ZN7libyang4Type4infoEv@Base 0.16.52
 _ZN7libyang4Type6parentEv@Base 0.16.52
 _ZN7libyang4TypeC1EP8lys_typeSt10shared_ptrINS_7DeleterEE@Base 0.16.52
 _ZN7libyang4TypeC2EP8lys_typeSt10shared_ptrINS_7DeleterEE@Base 0.16.52
 _ZN7libyang4TypeD1Ev@Base 0.16.52
 _ZN7libyang4TypeD2Ev@Base 0.16.52
 _ZN7libyang4When3extEv@Base 0.16.52
 _ZN7libyang4WhenC1EP8lys_whenSt10shared_ptrINS_7DeleterEE@Base 0.16.52
 _ZN7libyang4WhenC2EP8lys_whenSt10shared_ptrINS_7DeleterEE@Base 0.16.52
 _ZN7libyang4WhenD1Ev@Base 0.16.52
 _ZN7libyang4WhenD2Ev@Base 0.16.52
 _ZN7libyang5ErrorC1EP11ly_err_item@Base 0.16.52
 _ZN7libyang5ErrorC2EP11ly_err_item@Base 0.16.52
 _ZN7libyang5Ident4baseEv@Base 0.16.52
 _ZN7libyang5IdentC1EP9lys_identSt10shared_ptrINS_7DeleterEE@Base 0.16.52
 _ZN7libyang5IdentC2EP9lys_identSt10shared_ptrINS_7DeleterEE@Base 0.16.52
 _ZN7libyang5IdentD1Ev@Base 0.16.52
 _ZN7libyang5IdentD2Ev@Base 0.16.52
 _ZN7libyang5RestrC1EP9lys_restrSt10shared_ptrINS_7DeleterEE@Base 0.16.52
 _ZN7libyang5RestrC2EP9lys_restrSt10shared_ptrINS_7DeleterEE@Base 0.16.52
 _ZN7libyang5RestrD1Ev@Base 0.16.52
 _ZN7libyang5RestrD2Ev@Base 0.16.52
 _ZN7libyang5Value7leafrefEv@Base 0.16.52
 _ZN7libyang5Value8instanceEv@Base 0.16.52
 _ZN7libyang5ValueC1E11lyd_value_uP12LY_DATA_TYPEhSt10shared_ptrINS_7DeleterEE@Base 0.16.52
 _ZN7libyang5ValueC2E11lyd_value_uP12LY_DATA_TYPEhSt10shared_ptrINS_7DeleterEE@Base 0.16.52
 _ZN7libyang5ValueD1Ev@Base 0.16.52
 _ZN7libyang5ValueD2Ev@Base 0.16.52
 _ZN7libyang6ImportC1EP10lys_importSt10shared_ptrINS_7DeleterEE@Base 0.16.52
 _ZN7libyang6ImportC2EP10lys_importSt10shared_ptrINS_7DeleterEE@Base 0.16.52
 _ZN7libyang6ImportD1Ev@Base 0.16.52
 _ZN7libyang6ImportD2Ev@Base 0.16.52
 _ZN7libyang6Module18data_instantiablesEi@Base 0.16.52
 _ZN7libyang6Module3revEv@Base 0.16.52
 _ZN7libyang6Module9deviationEv@Base 0.16.52
 _ZN7libyang6Module9print_memB5cxx11E13LYS_OUTFORMATPKci@Base 0.16.52
 _ZN7libyang6Module9print_memB5cxx11E13LYS_OUTFORMATi@Base 0.16.52
 _ZN7libyang6ModuleC1EP10lys_moduleSt10shared_ptrINS_7DeleterEE@Base 0.16.52
 _ZN7libyang6ModuleC2EP10lys_moduleSt10shared_ptrINS_7DeleterEE@Base 0.16.52
 _ZN7libyang6ModuleD1Ev@Base 0.16.52
 _ZN7libyang6ModuleD2Ev@Base 0.16.52
 _ZN7libyang6Refine3extEv@Base 0.16.52
 _ZN7libyang6Refine3modEv@Base 0.16.52
 _ZN7libyang6Refine4mustEv@Base 0.16.52
 _ZN7libyang6Refine6moduleEv@Base 0.16.52
 _ZN7libyang6RefineC1EP10lys_refineSt10shared_ptrINS_7DeleterEE@Base 0.16.52
 _ZN7libyang6RefineC2EP10lys_refineSt10shared_ptrINS_7DeleterEE@Base 0.16.52
 _ZN7libyang6RefineD1Ev@Base 0.16.52
 _ZN7libyang6RefineD2Ev@Base 0.16.52
 _ZN7libyang6UniqueC1EP10lys_uniqueSt10shared_ptrINS_7DeleterEE@Base 0.16.52
 _ZN7libyang6UniqueC2EP10lys_uniqueSt10shared_ptrINS_7DeleterEE@Base 0.16.52
 _ZN7libyang6UniqueD1Ev@Base 0.16.52
 _ZN7libyang6UniqueD2Ev@Base 0.16.52
 _ZN7libyang6Xml_Ns4nextEv@Base 0.16.52
 _ZN7libyang6Xml_NsC1EPK8lyxml_nsSt10shared_ptrINS_7DeleterEE@Base 0.16.52
 _ZN7libyang6Xml_NsC2EPK8lyxml_nsSt10shared_ptrINS_7DeleterEE@Base 0.16.52
 _ZN7libyang6Xml_NsD1Ev@Base 0.16.52
 _ZN7libyang6Xml_NsD2Ev@Base 0.16.52
 _ZN7libyang7Context10get_moduleEPKcS2_i@Base 0.16.52
 _ZN7libyang7Context11load_moduleEPKcS2_@Base 0.16.52
 _ZN7libyang7Context13get_submoduleEPKcS2_S2_S2_@Base 0.16.52
 _ZN7libyang7Context13parse_data_fdEi10LYD_FORMATi@Base 0.16.52
 _ZN7libyang7Context13set_searchdirEPKc@Base 0.16.52
 _ZN7libyang7Context14get_searchdirsB5cxx11Ev@Base 0.16.52
 _ZN7libyang7Context14get_submodule2ESt10shared_ptrINS_6ModuleEEPKc@Base 0.16.52
 _ZN7libyang7Context14parse_data_memEPKc10LYD_FORMATi@Base 0.16.52
 _ZN7libyang7Context14parse_data_xmlESt10shared_ptrINS_8Xml_ElemEEi@Base 0.16.52
 _ZN7libyang7Context15get_module_iterEv@Base 0.16.52
 _ZN7libyang7Context15parse_data_pathEPKc10LYD_FORMATi@Base 0.16.52
 _ZN7libyang7Context15parse_module_fdEi12LYS_INFORMAT@Base 0.16.52
 _ZN7libyang7Context16get_module_by_nsEPKcS2_i@Base 0.16.52
 _ZN7libyang7Context16get_module_olderESt10shared_ptrINS_6ModuleEE@Base 0.16.52
 _ZN7libyang7Context16parse_module_memEPKc12LYS_INFORMAT@Base 0.16.52
 _ZN7libyang7Context17parse_module_pathEPKc12LYS_INFORMAT@Base 0.16.52
 _ZN7libyang7Context18cpp_mod_missing_cbEPKcS2_S2_S2_PvP12LYS_INFORMATPPFvS3_S3_E@Base 0.16.52
 _ZN7libyang7Context18data_instantiablesEi@Base 0.16.52
 _ZN7libyang7Context23cpp_mod_missing_deleterEPvS1_@Base 0.16.52
 _ZN7libyang7Context24get_disabled_module_iterEv@Base 0.16.52
 _ZN7libyang7Context27add_missing_module_callbackERKSt8functionIFNS0_21mod_missing_cb_returnEPKcS4_S4_S4_EERKS1_IFvPvEE@Base 0.16.52
 _ZN7libyang7Context4infoEv@Base 0.16.52
 _ZN7libyang7Context5cleanEv@Base 0.16.52
 _ZN7libyang7Context8get_nodeESt10shared_ptrINS_11Schema_NodeEEPKci@Base 0.16.52
 _ZN7libyang7Context9find_pathEPKc@Base 0.16.52
 _ZN7libyang7ContextC1EP6ly_ctxSt10shared_ptrINS_7DeleterEE@Base 0.16.52
 _ZN7libyang7ContextC1EPKc10LYD_FORMATS2_i@Base 0.16.52
 _ZN7libyang7ContextC1EPKcS2_10LYD_FORMATi@Base 0.16.52
 _ZN7libyang7ContextC1EPKci@Base 0.16.52
 _ZN7libyang7ContextC2EP6ly_ctxSt10shared_ptrINS_7DeleterEE@Base 0.16.52
 _ZN7libyang7ContextC2EPKc10LYD_FORMATS2_i@Base 0.16.52
 _ZN7libyang7ContextC2EPKcS2_10LYD_FORMATi@Base 0.16.52
 _ZN7libyang7ContextC2EPKci@Base 0.16.52
 _ZN7libyang7ContextD1Ev@Base 0.16.52
 _ZN7libyang7ContextD2Ev@Base 0.16.52
 _ZN7libyang7DeleterC1EP10lys_moduleSt10shared_ptrIS0_E@Base 0.16.52
 _ZN7libyang7DeleterC1EP12lyd_difflistSt10shared_ptrIS0_E@Base 0.16.52
 _ZN7libyang7DeleterC1EP13lys_submoduleSt10shared_ptrIS0_E@Base 0.16.52
 _ZN7libyang7DeleterC1EP6ly_ctxSt10shared_ptrIS0_E@Base 0.16.52
 _ZN7libyang7DeleterC1EP6ly_setSt10shared_ptrIS0_E@Base 0.16.52
 _ZN7libyang7DeleterC1EP8lyd_nodeSt10shared_ptrIS0_E@Base 0.16.52
 _ZN7libyang7DeleterC1EP8lys_nodeSt10shared_ptrIS0_E@Base 0.16.52
 _ZN7libyang7DeleterC1ESt10shared_ptrINS_7ContextEEP10lyxml_elemS1_IS0_E@Base 0.16.52
 _ZN7libyang7DeleterC2EP10lys_moduleSt10shared_ptrIS0_E@Base 0.16.52
 _ZN7libyang7DeleterC2EP12lyd_difflistSt10shared_ptrIS0_E@Base 0.16.52
 _ZN7libyang7DeleterC2EP13lys_submoduleSt10shared_ptrIS0_E@Base 0.16.52
 _ZN7libyang7DeleterC2EP6ly_ctxSt10shared_ptrIS0_E@Base 0.16.52
 _ZN7libyang7DeleterC2EP6ly_setSt10shared_ptrIS0_E@Base 0.16.52
 _ZN7libyang7DeleterC2EP8lyd_nodeSt10shared_ptrIS0_E@Base 0.16.52
 _ZN7libyang7DeleterC2EP8lys_nodeSt10shared_ptrIS0_E@Base 0.16.52
 _ZN7libyang7DeleterC2ESt10shared_ptrINS_7ContextEEP10lyxml_elemS1_IS0_E@Base 0.16.52
 _ZN7libyang7DeleterD1Ev@Base 0.16.52
 _ZN7libyang7DeleterD2Ev@Base 0.16.52
 _ZN7libyang7Deviate3extEv@Base 0.16.52
 _ZN7libyang7Deviate4mustEv@Base 0.16.52
 _ZN7libyang7Deviate4typeEv@Base 0.16.52
 _ZN7libyang7Deviate6uniqueEv@Base 0.16.52
 _ZN7libyang7DeviateC1EP11lys_deviateSt10shared_ptrINS_7DeleterEE@Base 0.16.52
 _ZN7libyang7DeviateC2EP11lys_deviateSt10shared_ptrINS_7DeleterEE@Base 0.16.52
 _ZN7libyang7DeviateD1Ev@Base 0.16.52
 _ZN7libyang7DeviateD2Ev@Base 0.16.52
 _ZN7libyang7FeatureC1EP11lys_featureSt10shared_ptrINS_7DeleterEE@Base 0.16.52
 _ZN7libyang7FeatureC2EP11lys_featureSt10shared_ptrINS_7DeleterEE@Base 0.16.52
 _ZN7libyang7FeatureD1Ev@Base 0.16.52
 _ZN7libyang7FeatureD2Ev@Base 0.16.52
 _ZN7libyang7IncludeC1EP11lys_includeSt10shared_ptrINS_7DeleterEE@Base 0.16.52
 _ZN7libyang7IncludeC2EP11lys_includeSt10shared_ptrINS_7DeleterEE@Base 0.16.52
 _ZN7libyang7IncludeD1Ev@Base 0.16.52
 _ZN7libyang7IncludeD2Ev@Base 0.16.52
 _ZN7libyang7SubstmtC1EP13lyext_substmtSt10shared_ptrINS_7DeleterEE@Base 0.16.52
 _ZN7libyang7SubstmtC2EP13lyext_substmtSt10shared_ptrINS_7DeleterEE@Base 0.16.52
 _ZN7libyang7SubstmtD1Ev@Base 0.16.52
 _ZN7libyang7SubstmtD2Ev@Base 0.16.52
 _ZN7libyang8Difflist5firstEv@Base 0.16.52
 _ZN7libyang8Difflist6secondEv@Base 0.16.52
 _ZN7libyang8DifflistC1EP12lyd_difflistSt10shared_ptrINS_7DeleterEE@Base 0.16.52
 _ZN7libyang8DifflistC2EP12lyd_difflistSt10shared_ptrINS_7DeleterEE@Base 0.16.52
 _ZN7libyang8DifflistD1Ev@Base 0.16.52
 _ZN7libyang8DifflistD2Ev@Base 0.16.52
 _ZN7libyang8RevisionC1EP12lys_revisionSt10shared_ptrINS_7DeleterEE@Base 0.16.52
 _ZN7libyang8RevisionC2EP12lys_revisionSt10shared_ptrINS_7DeleterEE@Base 0.16.52
 _ZN7libyang8RevisionD1Ev@Base 0.16.52
 _ZN7libyang8RevisionD2Ev@Base 0.16.52
 _ZN7libyang8Type_Bit3extEv@Base 0.16.52
 _ZN7libyang8Type_Bit9iffeatureEv@Base 0.16.52
 _ZN7libyang8Type_BitC1EP12lys_type_bitSt10shared_ptrINS_7DeleterEE@Base 0.16.52
 _ZN7libyang8Type_BitC2EP12lys_type_bitSt10shared_ptrINS_7DeleterEE@Base 0.16.52
 _ZN7libyang8Type_BitD1Ev@Base 0.16.52
 _ZN7libyang8Type_BitD2Ev@Base 0.16.52
 _ZN7libyang8Xml_Attr2nsEv@Base 0.16.52
 _ZN7libyang8Xml_Attr4nextEv@Base 0.16.52
 _ZN7libyang8Xml_AttrC1EP10lyxml_attrSt10shared_ptrINS_7DeleterEE@Base 0.16.52
 _ZN7libyang8Xml_AttrC2EP10lyxml_attrSt10shared_ptrINS_7DeleterEE@Base 0.16.52
 _ZN7libyang8Xml_AttrD1Ev@Base 0.16.52
 _ZN7libyang8Xml_AttrD2Ev@Base 0.16.52
 _ZN7libyang8Xml_Elem2nsEv@Base 0.16.52
 _ZN7libyang8Xml_Elem4attrEv@Base 0.16.52
 _ZN7libyang8Xml_Elem4nextEv@Base 0.16.52
 _ZN7libyang8Xml_Elem4prevEv@Base 0.16.52
 _ZN7libyang8Xml_Elem5childEv@Base 0.16.52
 _ZN7libyang8Xml_Elem6get_nsEPKc@Base 0.16.52
 _ZN7libyang8Xml_Elem6parentEv@Base 0.16.52
 _ZN7libyang8Xml_Elem8get_attrEPKcS2_@Base 0.16.52
 _ZN7libyang8Xml_Elem8tree_dfsEv@Base 0.16.52
 _ZN7libyang8Xml_Elem8tree_forEv@Base 0.16.52
 _ZN7libyang8Xml_Elem9print_memB5cxx11Ei@Base 0.16.52
 _ZN7libyang8Xml_ElemC1ESt10shared_ptrINS_7ContextEEP10lyxml_elemS1_INS_7DeleterEE@Base 0.16.52
 _ZN7libyang8Xml_ElemC2ESt10shared_ptrINS_7ContextEEP10lyxml_elemS1_INS_7DeleterEE@Base 0.16.52
 _ZN7libyang8Xml_ElemD1Ev@Base 0.16.52
 _ZN7libyang8Xml_ElemD2Ev@Base 0.16.52
 _ZN7libyang9Data_Node10dup_to_ctxEiSt10shared_ptrINS_7ContextEE@Base 0.16.52
 _ZN7libyang9Data_Node11insert_attrESt10shared_ptrINS_6ModuleEEPKcS5_@Base 0.16.52
 _ZN7libyang9Data_Node11node_moduleEv@Base 0.16.52
 _ZN7libyang9Data_Node11schema_sortEi@Base 0.16.52
 _ZN7libyang9Data_Node12insert_afterESt10shared_ptrIS0_E@Base 0.16.52
 _ZN7libyang9Data_Node12merge_to_ctxESt10shared_ptrIS0_EiS1_INS_7ContextEE@Base 0.16.52
 _ZN7libyang9Data_Node13find_instanceESt10shared_ptrINS_11Schema_NodeEE@Base 0.16.52
 _ZN7libyang9Data_Node13first_siblingEv@Base 0.16.52
 _ZN7libyang9Data_Node13insert_beforeESt10shared_ptrIS0_E@Base 0.16.52
 _ZN7libyang9Data_Node14insert_siblingESt10shared_ptrIS0_E@Base 0.16.52
 _ZN7libyang9Data_Node14validate_valueEPKc@Base 0.16.52
 _ZN7libyang9Data_Node16dup_withsiblingsEi@Base 0.16.52
 _ZN7libyang9Data_Node3dupEi@Base 0.16.52
 _ZN7libyang9Data_Node4attrEv@Base 0.16.52
 _ZN7libyang9Data_Node4diffESt10shared_ptrIS0_Ei@Base 0.16.52
 _ZN7libyang9Data_Node4pathB5cxx11Ev@Base 0.16.52
 _ZN7libyang9Data_Node5childEv@Base 0.16.52
 _ZN7libyang9Data_Node5mergeESt10shared_ptrIS0_Ei@Base 0.16.52
 _ZN7libyang9Data_Node6insertESt10shared_ptrIS0_E@Base 0.16.52
 _ZN7libyang9Data_Node6unlinkEv@Base 0.16.52
 _ZN7libyang9Data_Node8list_posEv@Base 0.16.52
 _ZN7libyang9Data_Node8new_pathESt10shared_ptrINS_7ContextEEPKcS1_INS_8Xml_ElemEEi@Base 0.16.52
 _ZN7libyang9Data_Node8new_pathESt10shared_ptrINS_7ContextEEPKcS1_IS0_Ei@Base 0.16.52
 _ZN7libyang9Data_Node8new_pathESt10shared_ptrINS_7ContextEEPKcS5_21LYD_ANYDATA_VALUETYPEi@Base 0.16.52
 _ZN7libyang9Data_Node8tree_dfsEv@Base 0.16.52
 _ZN7libyang9Data_Node8tree_forEv@Base 0.16.52
 _ZN7libyang9Data_Node8validateEiSt10shared_ptrINS_7ContextEE@Base 0.16.52
 _ZN7libyang9Data_Node8validateEiSt10shared_ptrIS0_E@Base 0.16.52
 _ZN7libyang9Data_Node9find_pathEPKc@Base 0.16.52
 _ZN7libyang9Data_Node9print_memB5cxx11E10LYD_FORMATi@Base 0.16.52
 _ZN7libyang9Data_NodeC1EP8lyd_nodeSt10shared_ptrINS_7DeleterEE@Base 0.16.52
 _ZN7libyang9Data_NodeC1ESt10shared_ptrINS_7ContextEEPKcS1_INS_8Xml_ElemEEi@Base 0.16.52
 _ZN7libyang9Data_NodeC1ESt10shared_ptrINS_7ContextEEPKcS1_IS0_Ei@Base 0.16.52
 _ZN7libyang9Data_NodeC1ESt10shared_ptrINS_7ContextEEPKcS5_21LYD_ANYDATA_VALUETYPEi@Base 0.16.52
 _ZN7libyang9Data_NodeC1ESt10shared_ptrIS0_ES1_INS_6ModuleEEPKc@Base 0.16.52
 _ZN7libyang9Data_NodeC1ESt10shared_ptrIS0_ES1_INS_6ModuleEEPKcS1_INS_8Xml_ElemEE@Base 0.16.52
 _ZN7libyang9Data_NodeC1ESt10shared_ptrIS0_ES1_INS_6ModuleEEPKcS2_@Base 0.16.52
 _ZN7libyang9Data_NodeC1ESt10shared_ptrIS0_ES1_INS_6ModuleEEPKcS6_21LYD_ANYDATA_VALUETYPE@Base 0.16.52
 _ZN7libyang9Data_NodeC1ESt10shared_ptrIS0_ES1_INS_6ModuleEEPKcS6_@Base 0.16.52
 _ZN7libyang9Data_NodeC2EP8lyd_nodeSt10shared_ptrINS_7DeleterEE@Base 0.16.52
 _ZN7libyang9Data_NodeC2ESt10shared_ptrINS_7ContextEEPKcS1_INS_8Xml_ElemEEi@Base 0.16.52
 _ZN7libyang9Data_NodeC2ESt10shared_ptrINS_7ContextEEPKcS1_IS0_Ei@Base 0.16.52
 _ZN7libyang9Data_NodeC2ESt10shared_ptrINS_7ContextEEPKcS5_21LYD_ANYDATA_VALUETYPEi@Base 0.16.52
 _ZN7libyang9Data_NodeC2ESt10shared_ptrIS0_ES1_INS_6ModuleEEPKc@Base 0.16.52
 _ZN7libyang9Data_NodeC2ESt10shared_ptrIS0_ES1_INS_6ModuleEEPKcS1_INS_8Xml_ElemEE@Base 0.16.52
 _ZN7libyang9Data_NodeC2ESt10shared_ptrIS0_ES1_INS_6ModuleEEPKcS2_@Base 0.16.52
 _ZN7libyang9Data_NodeC2ESt10shared_ptrIS0_ES1_INS_6ModuleEEPKcS6_21LYD_ANYDATA_VALUETYPE@Base 0.16.52
 _ZN7libyang9Data_NodeC2ESt10shared_ptrIS0_ES1_INS_6ModuleEEPKcS6_@Base 0.16.52
 _ZN7libyang9Data_NodeD1Ev@Base 0.16.52
 _ZN7libyang9Data_NodeD2Ev@Base 0.16.52
 _ZN7libyang9Deviation3extEv@Base 0.16.52
 _ZN7libyang9Deviation7deviateEv@Base 0.16.52
 _ZN7libyang9Deviation9orig_nodeEv@Base 0.16.52
 _ZN7libyang9DeviationC1EP13lys_deviationSt10shared_ptrINS_7DeleterEE@Base 0.16.52
 _ZN7libyang9DeviationC2EP13lys_deviationSt10shared_ptrINS_7DeleterEE@Base 0.16.52
 _ZN7libyang9DeviationD1Ev@Base 0.16.52
 _ZN7libyang9DeviationD2Ev@Base 0.16.52
 _ZN7libyang9Iffeature3extEv@Base 0.16.52
 _ZN7libyang9Iffeature8featuresEv@Base 0.16.52
 _ZN7libyang9IffeatureC1EP13lys_iffeatureSt10shared_ptrINS_7DeleterEE@Base 0.16.52
 _ZN7libyang9IffeatureC2EP13lys_iffeatureSt10shared_ptrINS_7DeleterEE@Base 0.16.52
 _ZN7libyang9IffeatureD1Ev@Base 0.16.52
 _ZN7libyang9IffeatureD2Ev@Base 0.16.52
 _ZN7libyang9Submodule3revEv@Base 0.16.52
 _ZN7libyang9Submodule9deviationEv@Base 0.16.52
 _ZN7libyang9SubmoduleC1EP13lys_submoduleSt10shared_ptrINS_7DeleterEE@Base 0.16.52
 _ZN7libyang9SubmoduleC2EP13lys_submoduleSt10shared_ptrINS_7DeleterEE@Base 0.16.52
 _ZN7libyang9SubmoduleD1Ev@Base 0.16.52
 _ZN7libyang9SubmoduleD2Ev@Base 0.16.52
 _ZN7libyang9Type_Enum3extEv@Base 0.16.52
 _ZN7libyang9Type_Enum9iffeatureEv@Base 0.16.52
 _ZN7libyang9Type_EnumC1EP13lys_type_enumSt10shared_ptrINS_7DeleterEE@Base 0.16.52
 _ZN7libyang9Type_EnumC2EP13lys_type_enumSt10shared_ptrINS_7DeleterEE@Base 0.16.52
 _ZN7libyang9Type_EnumD1Ev@Base 0.16.52
 _ZN7libyang9Type_EnumD2Ev@Base 0.16.52
 _ZN7libyang9Type_Info3numEv@Base 0.16.52
 _ZN7libyang9Type_Info3strEv@Base 0.16.52
 _ZN7libyang9Type_Info3uniEv@Base 0.16.52
 _ZN7libyang9Type_Info4bitsEv@Base 0.16.52
 _ZN7libyang9Type_Info4instEv@Base 0.16.52
 _ZN7libyang9Type_Info4lrefEv@Base 0.16.52
 _ZN7libyang9Type_Info5dec64Ev@Base 0.16.52
 _ZN7libyang9Type_Info5enumsEv@Base 0.16.52
 _ZN7libyang9Type_Info5identEv@Base 0.16.52
 _ZN7libyang9Type_Info6binaryEv@Base 0.16.52
 _ZN7libyang9Type_InfoC1E13lys_type_infoP12LY_DATA_TYPEhSt10shared_ptrINS_7DeleterEE@Base 0.16.52
 _ZN7libyang9Type_InfoC2E13lys_type_infoP12LY_DATA_TYPEhSt10shared_ptrINS_7DeleterEE@Base 0.16.52
 _ZN7libyang9Type_InfoD1Ev@Base 0.16.52
 _ZN7libyang9Type_InfoD2Ev@Base 0.16.52
 _ZNSt8functionIFN7libyang7Context21mod_missing_cb_returnEPKcS4_S4_S4_EEC1ERKS6_@Base 0.16.52
 _ZNSt8functionIFN7libyang7Context21mod_missing_cb_returnEPKcS4_S4_S4_EEC2ERKS6_@Base 0.16.52
 _ZTIN7libyang11Schema_NodeE@Base 0.16.52
 _ZTIN7libyang15Schema_Node_GrpE@Base 0.16.52
 _ZTIN7libyang16Schema_Node_CaseE@Base 0.16.52
 _ZTIN7libyang16Schema_Node_LeafE@Base 0.16.52
 _ZTIN7libyang16Schema_Node_ListE@Base 0.16.52
 _ZTIN7libyang16Schema_Node_UsesE@Base 0.16.52
 _ZTIN7libyang17Data_Node_AnydataE@Base 0.16.52
 _ZTIN7libyang17Schema_Node_InoutE@Base 0.16.52
 _ZTIN7libyang17Schema_Node_NotifE@Base 0.16.52
 _ZTIN7libyang18Schema_Node_ChoiceE@Base 0.16.52
 _ZTIN7libyang19Data_Node_Leaf_ListE@Base 0.16.52
 _ZTIN7libyang19Schema_Node_AnydataE@Base 0.16.52
 _ZTIN7libyang19Schema_Node_AugmentE@Base 0.16.52
 _ZTIN7libyang20Schema_Node_LeaflistE@Base 0.16.52
 _ZTIN7libyang21Schema_Node_ContainerE@Base 0.16.52
 _ZTIN7libyang22Schema_Node_Rpc_ActionE@Base 0.16.52
 _ZTIN7libyang9Data_NodeE@Base 0.16.52
 _ZTSN7libyang11Schema_NodeE@Base 0.16.52
 _ZTSN7libyang15Schema_Node_GrpE@Base 0.16.52
 _ZTSN7libyang16Schema_Node_CaseE@Base 0.16.52
 _ZTSN7libyang16Schema_Node_LeafE@Base 0.16.52
 _ZTSN7libyang16Schema_Node_ListE@Base 0.16.52
 _ZTSN7libyang16Schema_Node_UsesE@Base 0.16.52
 _ZTSN7libyang17Data_Node_AnydataE@Base 0.16.52
 _ZTSN7libyang17Schema_Node_InoutE@Base 0.16.52
 _ZTSN7libyang17Schema_Node_NotifE@Base 0.16.52
 _ZTSN7libyang18Schema_Node_ChoiceE@Base 0.16.52
 _ZTSN7libyang19Data_Node_Leaf_ListE@Base 0.16.52
 _ZTSN7libyang19Schema_Node_AnydataE@Base 0.16.52
 _ZTSN7libyang19Schema_Node_AugmentE@Base 0.16.52
 _ZTSN7libyang20Schema_Node_LeaflistE@Base 0.16.52
 _ZTSN7libyang21Schema_Node_ContainerE@Base 0.16.52
 _ZTSN7libyang22Schema_Node_Rpc_ActionE@Base 0.16.52
 _ZTSN7libyang9Data_NodeE@Base 0.16.52
 _ZTVN7libyang11Schema_NodeE@Base 0.16.52
 _ZTVN7libyang15Schema_Node_GrpE@Base 0.16.52
 _ZTVN7libyang16Schema_Node_CaseE@Base 0.16.52
 _ZTVN7libyang16Schema_Node_LeafE@Base 0.16.52
 _ZTVN7libyang16Schema_Node_ListE@Base 0.16.52
 _ZTVN7libyang16Schema_Node_UsesE@Base 0.16.52
 _ZTVN7libyang17Data_Node_AnydataE@Base 0.16.52
 _ZTVN7libyang17Schema_Node_InoutE@Base 0.16.52
 _ZTVN7libyang17Schema_Node_NotifE@Base 0.16.52
 _ZTVN7libyang18Schema_Node_ChoiceE@Base 0.16.52
 _ZTVN7libyang19Data_Node_Leaf_ListE@Base 0.16.52
 _ZTVN7libyang19Schema_Node_AnydataE@Base 0.16.52
 _ZTVN7libyang19Schema_Node_AugmentE@Base 0.16.52
 _ZTVN7libyang20Schema_Node_LeaflistE@Base 0.16.52
 _ZTVN7libyang21Schema_Node_ContainerE@Base 0.16.52
 _ZTVN7libyang22Schema_Node_Rpc_ActionE@Base 0.16.52
 _ZTVN7libyang9Data_NodeE@Base 0.16.52

# these depend on C++ template instantiation and toolchain details
# at least one should be missing
 (optional)_ZTSSt19_Sp_make_shared_tag@Base 0.16.52
 (optional)_ZTISt19_Sp_make_shared_tag@Base 0.16.52
 (optional)_ZZNSt19_Sp_make_shared_tag5_S_tiEvE5__tag@Base 0.16.52

# non-libyang C++ template instantiations
# these shouldn't be missing in 0.16.52 but may change arbitrarily between versions
 (optional)_ZNSt16_Sp_counted_baseILN9__gnu_cxx12_Lock_policyE2EE10_M_releaseEv@Base 0.16.52
 (optional)_ZNSt6vectorINSt7__cxx1112basic_stringIcSt11char_traitsIcESaIcEEESaIS5_EE17_M_realloc_insertIJS5_EEEvN9__gnu_cxx17__normal_iteratorIPS5_S7_EEDpOT_@Base 0.16.52
 (optional)_ZNSt6vectorIPKSt8functionIFvPvEESaIS5_EE17_M_realloc_insertIJS5_EEEvN9__gnu_cxx17__normal_iteratorIPS5_S7_EEDpOT_@Base 0.16.52
 (optional)_ZNSt8functionIFvPvEEC1ERKS2_@Base 0.16.52
 (optional)_ZNSt8functionIFvPvEEC2ERKS2_@Base 0.16.52
 (optional)_ZTISt11_Mutex_baseILN9__gnu_cxx12_Lock_policyE2EE@Base 0.16.52
 (optional)_ZTISt16_Sp_counted_baseILN9__gnu_cxx12_Lock_policyE2EE@Base 0.16.52
 (optional)_ZTSSt11_Mutex_baseILN9__gnu_cxx12_Lock_policyE2EE@Base 0.16.52
 (optional)_ZTSSt16_Sp_counted_baseILN9__gnu_cxx12_Lock_policyE2EE@Base 0.16.52

# libyang C++ template instantiations
# these shouldn't be missing except if an architecture uses different
# libstdc++ defaults.  The ones listed here apply on *most* platforms.
#   (example: riscv64 seems to default to lock policy "1" while other arches
#   use "2" and this causes non-critical fallout in several symbols here)
 (optional)_ZNSt12__shared_ptrIN7libyang11Schema_NodeELN9__gnu_cxx12_Lock_policyE2EEC1ISaIS1_EJRP8lys_nodeRSt10shared_ptrINS0_7DeleterEEEEESt19_Sp_make_shared_tagRKT_DpOT0_@Base 0.16.52
 (optional)_ZNSt12__shared_ptrIN7libyang11Schema_NodeELN9__gnu_cxx12_Lock_policyE2EEC2ISaIS1_EJRP8lys_nodeRSt10shared_ptrINS0_7DeleterEEEEESt19_Sp_make_shared_tagRKT_DpOT0_@Base 0.16.52
 (optional)_ZNSt12__shared_ptrIN7libyang12Ext_InstanceELN9__gnu_cxx12_Lock_policyE2EEC1ISaIS1_EJRP16lys_ext_instanceRSt10shared_ptrINS0_7DeleterEEEEESt19_Sp_make_shared_tagRKT_DpOT0_@Base 0.16.52
 (optional)_ZNSt12__shared_ptrIN7libyang12Ext_InstanceELN9__gnu_cxx12_Lock_policyE2EEC2ISaIS1_EJRP16lys_ext_instanceRSt10shared_ptrINS0_7DeleterEEEEESt19_Sp_make_shared_tagRKT_DpOT0_@Base 0.16.52
 (optional)_ZNSt12__shared_ptrIN7libyang4WhenELN9__gnu_cxx12_Lock_policyE2EEC1ISaIS1_EJRP8lys_whenRSt10shared_ptrINS0_7DeleterEEEEESt19_Sp_make_shared_tagRKT_DpOT0_@Base 0.16.52
 (optional)_ZNSt12__shared_ptrIN7libyang4WhenELN9__gnu_cxx12_Lock_policyE2EEC2ISaIS1_EJRP8lys_whenRSt10shared_ptrINS0_7DeleterEEEEESt19_Sp_make_shared_tagRKT_DpOT0_@Base 0.16.52
 (optional)_ZNSt12__shared_ptrIN7libyang7DeleterELN9__gnu_cxx12_Lock_policyE2EEC1ERKS4_@Base 0.16.52
 (optional)_ZNSt12__shared_ptrIN7libyang7DeleterELN9__gnu_cxx12_Lock_policyE2EEC2ERKS4_@Base 0.16.52
 (optional)_ZNSt23_Sp_counted_ptr_inplaceIN7libyang10Refine_ModESaIS1_ELN9__gnu_cxx12_Lock_policyE2EE10_M_destroyEv@Base 0.16.52
 (optional)_ZNSt23_Sp_counted_ptr_inplaceIN7libyang10Refine_ModESaIS1_ELN9__gnu_cxx12_Lock_policyE2EE10_M_disposeEv@Base 0.16.52
 (optional)_ZNSt23_Sp_counted_ptr_inplaceIN7libyang10Refine_ModESaIS1_ELN9__gnu_cxx12_Lock_policyE2EE14_M_get_deleterERKSt9type_info@Base 0.16.52
 (optional)_ZNSt23_Sp_counted_ptr_inplaceIN7libyang10Refine_ModESaIS1_ELN9__gnu_cxx12_Lock_policyE2EED0Ev@Base 0.16.52
 (optional)_ZNSt23_Sp_counted_ptr_inplaceIN7libyang10Refine_ModESaIS1_ELN9__gnu_cxx12_Lock_policyE2EED1Ev@Base 0.16.52
 (optional)_ZNSt23_Sp_counted_ptr_inplaceIN7libyang10Refine_ModESaIS1_ELN9__gnu_cxx12_Lock_policyE2EED2Ev@Base 0.16.52
 (optional)_ZNSt23_Sp_counted_ptr_inplaceIN7libyang11Schema_NodeESaIS1_ELN9__gnu_cxx12_Lock_policyE2EE10_M_destroyEv@Base 0.16.52
 (optional)_ZNSt23_Sp_counted_ptr_inplaceIN7libyang11Schema_NodeESaIS1_ELN9__gnu_cxx12_Lock_policyE2EE10_M_disposeEv@Base 0.16.52
 (optional)_ZNSt23_Sp_counted_ptr_inplaceIN7libyang11Schema_NodeESaIS1_ELN9__gnu_cxx12_Lock_policyE2EE14_M_get_deleterERKSt9type_info@Base 0.16.52
 (optional)_ZNSt23_Sp_counted_ptr_inplaceIN7libyang11Schema_NodeESaIS1_ELN9__gnu_cxx12_Lock_policyE2EED0Ev@Base 0.16.52
 (optional)_ZNSt23_Sp_counted_ptr_inplaceIN7libyang11Schema_NodeESaIS1_ELN9__gnu_cxx12_Lock_policyE2EED1Ev@Base 0.16.52
 (optional)_ZNSt23_Sp_counted_ptr_inplaceIN7libyang11Schema_NodeESaIS1_ELN9__gnu_cxx12_Lock_policyE2EED2Ev@Base 0.16.52
 (optional)_ZNSt23_Sp_counted_ptr_inplaceIN7libyang12Ext_InstanceESaIS1_ELN9__gnu_cxx12_Lock_policyE2EE10_M_destroyEv@Base 0.16.52
 (optional)_ZNSt23_Sp_counted_ptr_inplaceIN7libyang12Ext_InstanceESaIS1_ELN9__gnu_cxx12_Lock_policyE2EE10_M_disposeEv@Base 0.16.52
 (optional)_ZNSt23_Sp_counted_ptr_inplaceIN7libyang12Ext_InstanceESaIS1_ELN9__gnu_cxx12_Lock_policyE2EE14_M_get_deleterERKSt9type_info@Base 0.16.52
 (optional)_ZNSt23_Sp_counted_ptr_inplaceIN7libyang12Ext_InstanceESaIS1_ELN9__gnu_cxx12_Lock_policyE2EED0Ev@Base 0.16.52
 (optional)_ZNSt23_Sp_counted_ptr_inplaceIN7libyang12Ext_InstanceESaIS1_ELN9__gnu_cxx12_Lock_policyE2EED1Ev@Base 0.16.52
 (optional)_ZNSt23_Sp_counted_ptr_inplaceIN7libyang12Ext_InstanceESaIS1_ELN9__gnu_cxx12_Lock_policyE2EED2Ev@Base 0.16.52
 (optional)_ZNSt23_Sp_counted_ptr_inplaceIN7libyang13Type_Info_NumESaIS1_ELN9__gnu_cxx12_Lock_policyE2EE10_M_destroyEv@Base 0.16.52
 (optional)_ZNSt23_Sp_counted_ptr_inplaceIN7libyang13Type_Info_NumESaIS1_ELN9__gnu_cxx12_Lock_policyE2EE10_M_disposeEv@Base 0.16.52
 (optional)_ZNSt23_Sp_counted_ptr_inplaceIN7libyang13Type_Info_NumESaIS1_ELN9__gnu_cxx12_Lock_policyE2EE14_M_get_deleterERKSt9type_info@Base 0.16.52
 (optional)_ZNSt23_Sp_counted_ptr_inplaceIN7libyang13Type_Info_NumESaIS1_ELN9__gnu_cxx12_Lock_policyE2EED0Ev@Base 0.16.52
 (optional)_ZNSt23_Sp_counted_ptr_inplaceIN7libyang13Type_Info_NumESaIS1_ELN9__gnu_cxx12_Lock_policyE2EED1Ev@Base 0.16.52
 (optional)_ZNSt23_Sp_counted_ptr_inplaceIN7libyang13Type_Info_NumESaIS1_ELN9__gnu_cxx12_Lock_policyE2EED2Ev@Base 0.16.52
 (optional)_ZNSt23_Sp_counted_ptr_inplaceIN7libyang13Type_Info_StrESaIS1_ELN9__gnu_cxx12_Lock_policyE2EE10_M_destroyEv@Base 0.16.52
 (optional)_ZNSt23_Sp_counted_ptr_inplaceIN7libyang13Type_Info_StrESaIS1_ELN9__gnu_cxx12_Lock_policyE2EE10_M_disposeEv@Base 0.16.52
 (optional)_ZNSt23_Sp_counted_ptr_inplaceIN7libyang13Type_Info_StrESaIS1_ELN9__gnu_cxx12_Lock_policyE2EE14_M_get_deleterERKSt9type_info@Base 0.16.52
 (optional)_ZNSt23_Sp_counted_ptr_inplaceIN7libyang13Type_Info_StrESaIS1_ELN9__gnu_cxx12_Lock_policyE2EED0Ev@Base 0.16.52
 (optional)_ZNSt23_Sp_counted_ptr_inplaceIN7libyang13Type_Info_StrESaIS1_ELN9__gnu_cxx12_Lock_policyE2EED1Ev@Base 0.16.52
 (optional)_ZNSt23_Sp_counted_ptr_inplaceIN7libyang13Type_Info_StrESaIS1_ELN9__gnu_cxx12_Lock_policyE2EED2Ev@Base 0.16.52
 (optional)_ZNSt23_Sp_counted_ptr_inplaceIN7libyang14Type_Info_BitsESaIS1_ELN9__gnu_cxx12_Lock_policyE2EE10_M_destroyEv@Base 0.16.52
 (optional)_ZNSt23_Sp_counted_ptr_inplaceIN7libyang14Type_Info_BitsESaIS1_ELN9__gnu_cxx12_Lock_policyE2EE10_M_disposeEv@Base 0.16.52
 (optional)_ZNSt23_Sp_counted_ptr_inplaceIN7libyang14Type_Info_BitsESaIS1_ELN9__gnu_cxx12_Lock_policyE2EE14_M_get_deleterERKSt9type_info@Base 0.16.52
 (optional)_ZNSt23_Sp_counted_ptr_inplaceIN7libyang14Type_Info_BitsESaIS1_ELN9__gnu_cxx12_Lock_policyE2EED0Ev@Base 0.16.52
 (optional)_ZNSt23_Sp_counted_ptr_inplaceIN7libyang14Type_Info_BitsESaIS1_ELN9__gnu_cxx12_Lock_policyE2EED1Ev@Base 0.16.52
 (optional)_ZNSt23_Sp_counted_ptr_inplaceIN7libyang14Type_Info_BitsESaIS1_ELN9__gnu_cxx12_Lock_policyE2EED2Ev@Base 0.16.52
 (optional)_ZNSt23_Sp_counted_ptr_inplaceIN7libyang14Type_Info_InstESaIS1_ELN9__gnu_cxx12_Lock_policyE2EE10_M_destroyEv@Base 0.16.52
 (optional)_ZNSt23_Sp_counted_ptr_inplaceIN7libyang14Type_Info_InstESaIS1_ELN9__gnu_cxx12_Lock_policyE2EE10_M_disposeEv@Base 0.16.52
 (optional)_ZNSt23_Sp_counted_ptr_inplaceIN7libyang14Type_Info_InstESaIS1_ELN9__gnu_cxx12_Lock_policyE2EE14_M_get_deleterERKSt9type_info@Base 0.16.52
 (optional)_ZNSt23_Sp_counted_ptr_inplaceIN7libyang14Type_Info_InstESaIS1_ELN9__gnu_cxx12_Lock_policyE2EED0Ev@Base 0.16.52
 (optional)_ZNSt23_Sp_counted_ptr_inplaceIN7libyang14Type_Info_InstESaIS1_ELN9__gnu_cxx12_Lock_policyE2EED1Ev@Base 0.16.52
 (optional)_ZNSt23_Sp_counted_ptr_inplaceIN7libyang14Type_Info_InstESaIS1_ELN9__gnu_cxx12_Lock_policyE2EED2Ev@Base 0.16.52
 (optional)_ZNSt23_Sp_counted_ptr_inplaceIN7libyang14Type_Info_LrefESaIS1_ELN9__gnu_cxx12_Lock_policyE2EE10_M_destroyEv@Base 0.16.52
 (optional)_ZNSt23_Sp_counted_ptr_inplaceIN7libyang14Type_Info_LrefESaIS1_ELN9__gnu_cxx12_Lock_policyE2EE10_M_disposeEv@Base 0.16.52
 (optional)_ZNSt23_Sp_counted_ptr_inplaceIN7libyang14Type_Info_LrefESaIS1_ELN9__gnu_cxx12_Lock_policyE2EE14_M_get_deleterERKSt9type_info@Base 0.16.52
 (optional)_ZNSt23_Sp_counted_ptr_inplaceIN7libyang14Type_Info_LrefESaIS1_ELN9__gnu_cxx12_Lock_policyE2EED0Ev@Base 0.16.52
 (optional)_ZNSt23_Sp_counted_ptr_inplaceIN7libyang14Type_Info_LrefESaIS1_ELN9__gnu_cxx12_Lock_policyE2EED1Ev@Base 0.16.52
 (optional)_ZNSt23_Sp_counted_ptr_inplaceIN7libyang14Type_Info_LrefESaIS1_ELN9__gnu_cxx12_Lock_policyE2EED2Ev@Base 0.16.52
 (optional)_ZNSt23_Sp_counted_ptr_inplaceIN7libyang15Refine_Mod_ListESaIS1_ELN9__gnu_cxx12_Lock_policyE2EE10_M_destroyEv@Base 0.16.52
 (optional)_ZNSt23_Sp_counted_ptr_inplaceIN7libyang15Refine_Mod_ListESaIS1_ELN9__gnu_cxx12_Lock_policyE2EE10_M_disposeEv@Base 0.16.52
 (optional)_ZNSt23_Sp_counted_ptr_inplaceIN7libyang15Refine_Mod_ListESaIS1_ELN9__gnu_cxx12_Lock_policyE2EE14_M_get_deleterERKSt9type_info@Base 0.16.52
 (optional)_ZNSt23_Sp_counted_ptr_inplaceIN7libyang15Refine_Mod_ListESaIS1_ELN9__gnu_cxx12_Lock_policyE2EED0Ev@Base 0.16.52
 (optional)_ZNSt23_Sp_counted_ptr_inplaceIN7libyang15Refine_Mod_ListESaIS1_ELN9__gnu_cxx12_Lock_policyE2EED1Ev@Base 0.16.52
 (optional)_ZNSt23_Sp_counted_ptr_inplaceIN7libyang15Refine_Mod_ListESaIS1_ELN9__gnu_cxx12_Lock_policyE2EED2Ev@Base 0.16.52
 (optional)_ZNSt23_Sp_counted_ptr_inplaceIN7libyang15Schema_Node_GrpESaIS1_ELN9__gnu_cxx12_Lock_policyE2EE10_M_destroyEv@Base 0.16.52
 (optional)_ZNSt23_Sp_counted_ptr_inplaceIN7libyang15Schema_Node_GrpESaIS1_ELN9__gnu_cxx12_Lock_policyE2EE10_M_disposeEv@Base 0.16.52
 (optional)_ZNSt23_Sp_counted_ptr_inplaceIN7libyang15Schema_Node_GrpESaIS1_ELN9__gnu_cxx12_Lock_policyE2EE14_M_get_deleterERKSt9type_info@Base 0.16.52
 (optional)_ZNSt23_Sp_counted_ptr_inplaceIN7libyang15Schema_Node_GrpESaIS1_ELN9__gnu_cxx12_Lock_policyE2EED0Ev@Base 0.16.52
 (optional)_ZNSt23_Sp_counted_ptr_inplaceIN7libyang15Schema_Node_GrpESaIS1_ELN9__gnu_cxx12_Lock_policyE2EED1Ev@Base 0.16.52
 (optional)_ZNSt23_Sp_counted_ptr_inplaceIN7libyang15Schema_Node_GrpESaIS1_ELN9__gnu_cxx12_Lock_policyE2EED2Ev@Base 0.16.52
 (optional)_ZNSt23_Sp_counted_ptr_inplaceIN7libyang15Type_Info_Dec64ESaIS1_ELN9__gnu_cxx12_Lock_policyE2EE10_M_destroyEv@Base 0.16.52
 (optional)_ZNSt23_Sp_counted_ptr_inplaceIN7libyang15Type_Info_Dec64ESaIS1_ELN9__gnu_cxx12_Lock_policyE2EE10_M_disposeEv@Base 0.16.52
 (optional)_ZNSt23_Sp_counted_ptr_inplaceIN7libyang15Type_Info_Dec64ESaIS1_ELN9__gnu_cxx12_Lock_policyE2EE14_M_get_deleterERKSt9type_info@Base 0.16.52
 (optional)_ZNSt23_Sp_counted_ptr_inplaceIN7libyang15Type_Info_Dec64ESaIS1_ELN9__gnu_cxx12_Lock_policyE2EED0Ev@Base 0.16.52
 (optional)_ZNSt23_Sp_counted_ptr_inplaceIN7libyang15Type_Info_Dec64ESaIS1_ELN9__gnu_cxx12_Lock_policyE2EED1Ev@Base 0.16.52
 (optional)_ZNSt23_Sp_counted_ptr_inplaceIN7libyang15Type_Info_Dec64ESaIS1_ELN9__gnu_cxx12_Lock_policyE2EED2Ev@Base 0.16.52
 (optional)_ZNSt23_Sp_counted_ptr_inplaceIN7libyang15Type_Info_EnumsESaIS1_ELN9__gnu_cxx12_Lock_policyE2EE10_M_destroyEv@Base 0.16.52
 (optional)_ZNSt23_Sp_counted_ptr_inplaceIN7libyang15Type_Info_EnumsESaIS1_ELN9__gnu_cxx12_Lock_policyE2EE10_M_disposeEv@Base 0.16.52
 (optional)_ZNSt23_Sp_counted_ptr_inplaceIN7libyang15Type_Info_EnumsESaIS1_ELN9__gnu_cxx12_Lock_policyE2EE14_M_get_deleterERKSt9type_info@Base 0.16.52
 (optional)_ZNSt23_Sp_counted_ptr_inplaceIN7libyang15Type_Info_EnumsESaIS1_ELN9__gnu_cxx12_Lock_policyE2EED0Ev@Base 0.16.52
 (optional)_ZNSt23_Sp_counted_ptr_inplaceIN7libyang15Type_Info_EnumsESaIS1_ELN9__gnu_cxx12_Lock_policyE2EED1Ev@Base 0.16.52
 (optional)_ZNSt23_Sp_counted_ptr_inplaceIN7libyang15Type_Info_EnumsESaIS1_ELN9__gnu_cxx12_Lock_policyE2EED2Ev@Base 0.16.52
 (optional)_ZNSt23_Sp_counted_ptr_inplaceIN7libyang15Type_Info_IdentESaIS1_ELN9__gnu_cxx12_Lock_policyE2EE10_M_destroyEv@Base 0.16.52
 (optional)_ZNSt23_Sp_counted_ptr_inplaceIN7libyang15Type_Info_IdentESaIS1_ELN9__gnu_cxx12_Lock_policyE2EE10_M_disposeEv@Base 0.16.52
 (optional)_ZNSt23_Sp_counted_ptr_inplaceIN7libyang15Type_Info_IdentESaIS1_ELN9__gnu_cxx12_Lock_policyE2EE14_M_get_deleterERKSt9type_info@Base 0.16.52
 (optional)_ZNSt23_Sp_counted_ptr_inplaceIN7libyang15Type_Info_IdentESaIS1_ELN9__gnu_cxx12_Lock_policyE2EED0Ev@Base 0.16.52
 (optional)_ZNSt23_Sp_counted_ptr_inplaceIN7libyang15Type_Info_IdentESaIS1_ELN9__gnu_cxx12_Lock_policyE2EED1Ev@Base 0.16.52
 (optional)_ZNSt23_Sp_counted_ptr_inplaceIN7libyang15Type_Info_IdentESaIS1_ELN9__gnu_cxx12_Lock_policyE2EED2Ev@Base 0.16.52
 (optional)_ZNSt23_Sp_counted_ptr_inplaceIN7libyang15Type_Info_UnionESaIS1_ELN9__gnu_cxx12_Lock_policyE2EE10_M_destroyEv@Base 0.16.52
 (optional)_ZNSt23_Sp_counted_ptr_inplaceIN7libyang15Type_Info_UnionESaIS1_ELN9__gnu_cxx12_Lock_policyE2EE10_M_disposeEv@Base 0.16.52
 (optional)_ZNSt23_Sp_counted_ptr_inplaceIN7libyang15Type_Info_UnionESaIS1_ELN9__gnu_cxx12_Lock_policyE2EE14_M_get_deleterERKSt9type_info@Base 0.16.52
 (optional)_ZNSt23_Sp_counted_ptr_inplaceIN7libyang15Type_Info_UnionESaIS1_ELN9__gnu_cxx12_Lock_policyE2EED0Ev@Base 0.16.52
 (optional)_ZNSt23_Sp_counted_ptr_inplaceIN7libyang15Type_Info_UnionESaIS1_ELN9__gnu_cxx12_Lock_policyE2EED1Ev@Base 0.16.52
 (optional)_ZNSt23_Sp_counted_ptr_inplaceIN7libyang15Type_Info_UnionESaIS1_ELN9__gnu_cxx12_Lock_policyE2EED2Ev@Base 0.16.52
 (optional)_ZNSt23_Sp_counted_ptr_inplaceIN7libyang16Schema_Node_LeafESaIS1_ELN9__gnu_cxx12_Lock_policyE2EE10_M_destroyEv@Base 0.16.52
 (optional)_ZNSt23_Sp_counted_ptr_inplaceIN7libyang16Schema_Node_LeafESaIS1_ELN9__gnu_cxx12_Lock_policyE2EE10_M_disposeEv@Base 0.16.52
 (optional)_ZNSt23_Sp_counted_ptr_inplaceIN7libyang16Schema_Node_LeafESaIS1_ELN9__gnu_cxx12_Lock_policyE2EE14_M_get_deleterERKSt9type_info@Base 0.16.52
 (optional)_ZNSt23_Sp_counted_ptr_inplaceIN7libyang16Schema_Node_LeafESaIS1_ELN9__gnu_cxx12_Lock_policyE2EED0Ev@Base 0.16.52
 (optional)_ZNSt23_Sp_counted_ptr_inplaceIN7libyang16Schema_Node_LeafESaIS1_ELN9__gnu_cxx12_Lock_policyE2EED1Ev@Base 0.16.52
 (optional)_ZNSt23_Sp_counted_ptr_inplaceIN7libyang16Schema_Node_LeafESaIS1_ELN9__gnu_cxx12_Lock_policyE2EED2Ev@Base 0.16.52
 (optional)_ZNSt23_Sp_counted_ptr_inplaceIN7libyang16Schema_Node_ListESaIS1_ELN9__gnu_cxx12_Lock_policyE2EE10_M_destroyEv@Base 0.16.52
 (optional)_ZNSt23_Sp_counted_ptr_inplaceIN7libyang16Schema_Node_ListESaIS1_ELN9__gnu_cxx12_Lock_policyE2EE10_M_disposeEv@Base 0.16.52
 (optional)_ZNSt23_Sp_counted_ptr_inplaceIN7libyang16Schema_Node_ListESaIS1_ELN9__gnu_cxx12_Lock_policyE2EE14_M_get_deleterERKSt9type_info@Base 0.16.52
 (optional)_ZNSt23_Sp_counted_ptr_inplaceIN7libyang16Schema_Node_ListESaIS1_ELN9__gnu_cxx12_Lock_policyE2EED0Ev@Base 0.16.52
 (optional)_ZNSt23_Sp_counted_ptr_inplaceIN7libyang16Schema_Node_ListESaIS1_ELN9__gnu_cxx12_Lock_policyE2EED1Ev@Base 0.16.52
 (optional)_ZNSt23_Sp_counted_ptr_inplaceIN7libyang16Schema_Node_ListESaIS1_ELN9__gnu_cxx12_Lock_policyE2EED2Ev@Base 0.16.52
 (optional)_ZNSt23_Sp_counted_ptr_inplaceIN7libyang16Type_Info_BinaryESaIS1_ELN9__gnu_cxx12_Lock_policyE2EE10_M_destroyEv@Base 0.16.52
 (optional)_ZNSt23_Sp_counted_ptr_inplaceIN7libyang16Type_Info_BinaryESaIS1_ELN9__gnu_cxx12_Lock_policyE2EE10_M_disposeEv@Base 0.16.52
 (optional)_ZNSt23_Sp_counted_ptr_inplaceIN7libyang16Type_Info_BinaryESaIS1_ELN9__gnu_cxx12_Lock_policyE2EE14_M_get_deleterERKSt9type_info@Base 0.16.52
 (optional)_ZNSt23_Sp_counted_ptr_inplaceIN7libyang16Type_Info_BinaryESaIS1_ELN9__gnu_cxx12_Lock_policyE2EED0Ev@Base 0.16.52
 (optional)_ZNSt23_Sp_counted_ptr_inplaceIN7libyang16Type_Info_BinaryESaIS1_ELN9__gnu_cxx12_Lock_policyE2EED1Ev@Base 0.16.52
 (optional)_ZNSt23_Sp_counted_ptr_inplaceIN7libyang16Type_Info_BinaryESaIS1_ELN9__gnu_cxx12_Lock_policyE2EED2Ev@Base 0.16.52
 (optional)_ZNSt23_Sp_counted_ptr_inplaceIN7libyang19Schema_Node_AugmentESaIS1_ELN9__gnu_cxx12_Lock_policyE2EE10_M_destroyEv@Base 0.16.52
 (optional)_ZNSt23_Sp_counted_ptr_inplaceIN7libyang19Schema_Node_AugmentESaIS1_ELN9__gnu_cxx12_Lock_policyE2EE10_M_disposeEv@Base 0.16.52
 (optional)_ZNSt23_Sp_counted_ptr_inplaceIN7libyang19Schema_Node_AugmentESaIS1_ELN9__gnu_cxx12_Lock_policyE2EE14_M_get_deleterERKSt9type_info@Base 0.16.52
 (optional)_ZNSt23_Sp_counted_ptr_inplaceIN7libyang19Schema_Node_AugmentESaIS1_ELN9__gnu_cxx12_Lock_policyE2EED0Ev@Base 0.16.52
 (optional)_ZNSt23_Sp_counted_ptr_inplaceIN7libyang19Schema_Node_AugmentESaIS1_ELN9__gnu_cxx12_Lock_policyE2EED1Ev@Base 0.16.52
 (optional)_ZNSt23_Sp_counted_ptr_inplaceIN7libyang19Schema_Node_AugmentESaIS1_ELN9__gnu_cxx12_Lock_policyE2EED2Ev@Base 0.16.52
 (optional)_ZNSt23_Sp_counted_ptr_inplaceIN7libyang3SetESaIS1_ELN9__gnu_cxx12_Lock_policyE2EE10_M_destroyEv@Base 0.16.52
 (optional)_ZNSt23_Sp_counted_ptr_inplaceIN7libyang3SetESaIS1_ELN9__gnu_cxx12_Lock_policyE2EE10_M_disposeEv@Base 0.16.52
 (optional)_ZNSt23_Sp_counted_ptr_inplaceIN7libyang3SetESaIS1_ELN9__gnu_cxx12_Lock_policyE2EE14_M_get_deleterERKSt9type_info@Base 0.16.52
 (optional)_ZNSt23_Sp_counted_ptr_inplaceIN7libyang3SetESaIS1_ELN9__gnu_cxx12_Lock_policyE2EED0Ev@Base 0.16.52
 (optional)_ZNSt23_Sp_counted_ptr_inplaceIN7libyang3SetESaIS1_ELN9__gnu_cxx12_Lock_policyE2EED1Ev@Base 0.16.52
 (optional)_ZNSt23_Sp_counted_ptr_inplaceIN7libyang3SetESaIS1_ELN9__gnu_cxx12_Lock_policyE2EED2Ev@Base 0.16.52
 (optional)_ZNSt23_Sp_counted_ptr_inplaceIN7libyang4AttrESaIS1_ELN9__gnu_cxx12_Lock_policyE2EE10_M_destroyEv@Base 0.16.52
 (optional)_ZNSt23_Sp_counted_ptr_inplaceIN7libyang4AttrESaIS1_ELN9__gnu_cxx12_Lock_policyE2EE10_M_disposeEv@Base 0.16.52
 (optional)_ZNSt23_Sp_counted_ptr_inplaceIN7libyang4AttrESaIS1_ELN9__gnu_cxx12_Lock_policyE2EE14_M_get_deleterERKSt9type_info@Base 0.16.52
 (optional)_ZNSt23_Sp_counted_ptr_inplaceIN7libyang4AttrESaIS1_ELN9__gnu_cxx12_Lock_policyE2EED0Ev@Base 0.16.52
 (optional)_ZNSt23_Sp_counted_ptr_inplaceIN7libyang4AttrESaIS1_ELN9__gnu_cxx12_Lock_policyE2EED1Ev@Base 0.16.52
 (optional)_ZNSt23_Sp_counted_ptr_inplaceIN7libyang4AttrESaIS1_ELN9__gnu_cxx12_Lock_policyE2EED2Ev@Base 0.16.52
 (optional)_ZNSt23_Sp_counted_ptr_inplaceIN7libyang4TpdfESaIS1_ELN9__gnu_cxx12_Lock_policyE2EE10_M_destroyEv@Base 0.16.52
 (optional)_ZNSt23_Sp_counted_ptr_inplaceIN7libyang4TpdfESaIS1_ELN9__gnu_cxx12_Lock_policyE2EE10_M_disposeEv@Base 0.16.52
 (optional)_ZNSt23_Sp_counted_ptr_inplaceIN7libyang4TpdfESaIS1_ELN9__gnu_cxx12_Lock_policyE2EE14_M_get_deleterERKSt9type_info@Base 0.16.52
 (optional)_ZNSt23_Sp_counted_ptr_inplaceIN7libyang4TpdfESaIS1_ELN9__gnu_cxx12_Lock_policyE2EED0Ev@Base 0.16.52
 (optional)_ZNSt23_Sp_counted_ptr_inplaceIN7libyang4TpdfESaIS1_ELN9__gnu_cxx12_Lock_policyE2EED1Ev@Base 0.16.52
 (optional)_ZNSt23_Sp_counted_ptr_inplaceIN7libyang4TpdfESaIS1_ELN9__gnu_cxx12_Lock_policyE2EED2Ev@Base 0.16.52
 (optional)_ZNSt23_Sp_counted_ptr_inplaceIN7libyang4TypeESaIS1_ELN9__gnu_cxx12_Lock_policyE2EE10_M_destroyEv@Base 0.16.52
 (optional)_ZNSt23_Sp_counted_ptr_inplaceIN7libyang4TypeESaIS1_ELN9__gnu_cxx12_Lock_policyE2EE10_M_disposeEv@Base 0.16.52
 (optional)_ZNSt23_Sp_counted_ptr_inplaceIN7libyang4TypeESaIS1_ELN9__gnu_cxx12_Lock_policyE2EE14_M_get_deleterERKSt9type_info@Base 0.16.52
 (optional)_ZNSt23_Sp_counted_ptr_inplaceIN7libyang4TypeESaIS1_ELN9__gnu_cxx12_Lock_policyE2EED0Ev@Base 0.16.52
 (optional)_ZNSt23_Sp_counted_ptr_inplaceIN7libyang4TypeESaIS1_ELN9__gnu_cxx12_Lock_policyE2EED1Ev@Base 0.16.52
 (optional)_ZNSt23_Sp_counted_ptr_inplaceIN7libyang4TypeESaIS1_ELN9__gnu_cxx12_Lock_policyE2EED2Ev@Base 0.16.52
 (optional)_ZNSt23_Sp_counted_ptr_inplaceIN7libyang4WhenESaIS1_ELN9__gnu_cxx12_Lock_policyE2EE10_M_destroyEv@Base 0.16.52
 (optional)_ZNSt23_Sp_counted_ptr_inplaceIN7libyang4WhenESaIS1_ELN9__gnu_cxx12_Lock_policyE2EE10_M_disposeEv@Base 0.16.52
 (optional)_ZNSt23_Sp_counted_ptr_inplaceIN7libyang4WhenESaIS1_ELN9__gnu_cxx12_Lock_policyE2EE14_M_get_deleterERKSt9type_info@Base 0.16.52
 (optional)_ZNSt23_Sp_counted_ptr_inplaceIN7libyang4WhenESaIS1_ELN9__gnu_cxx12_Lock_policyE2EED0Ev@Base 0.16.52
 (optional)_ZNSt23_Sp_counted_ptr_inplaceIN7libyang4WhenESaIS1_ELN9__gnu_cxx12_Lock_policyE2EED1Ev@Base 0.16.52
 (optional)_ZNSt23_Sp_counted_ptr_inplaceIN7libyang4WhenESaIS1_ELN9__gnu_cxx12_Lock_policyE2EED2Ev@Base 0.16.52
 (optional)_ZNSt23_Sp_counted_ptr_inplaceIN7libyang5ErrorESaIS1_ELN9__gnu_cxx12_Lock_policyE2EE10_M_destroyEv@Base 0.16.52
 (optional)_ZNSt23_Sp_counted_ptr_inplaceIN7libyang5ErrorESaIS1_ELN9__gnu_cxx12_Lock_policyE2EE10_M_disposeEv@Base 0.16.52
 (optional)_ZNSt23_Sp_counted_ptr_inplaceIN7libyang5ErrorESaIS1_ELN9__gnu_cxx12_Lock_policyE2EE14_M_get_deleterERKSt9type_info@Base 0.16.52
 (optional)_ZNSt23_Sp_counted_ptr_inplaceIN7libyang5ErrorESaIS1_ELN9__gnu_cxx12_Lock_policyE2EED0Ev@Base 0.16.52
 (optional)_ZNSt23_Sp_counted_ptr_inplaceIN7libyang5ErrorESaIS1_ELN9__gnu_cxx12_Lock_policyE2EED1Ev@Base 0.16.52
 (optional)_ZNSt23_Sp_counted_ptr_inplaceIN7libyang5ErrorESaIS1_ELN9__gnu_cxx12_Lock_policyE2EED2Ev@Base 0.16.52
 (optional)_ZNSt23_Sp_counted_ptr_inplaceIN7libyang5IdentESaIS1_ELN9__gnu_cxx12_Lock_policyE2EE10_M_destroyEv@Base 0.16.52
 (optional)_ZNSt23_Sp_counted_ptr_inplaceIN7libyang5IdentESaIS1_ELN9__gnu_cxx12_Lock_policyE2EE10_M_disposeEv@Base 0.16.52
 (optional)_ZNSt23_Sp_counted_ptr_inplaceIN7libyang5IdentESaIS1_ELN9__gnu_cxx12_Lock_policyE2EE14_M_get_deleterERKSt9type_info@Base 0.16.52
 (optional)_ZNSt23_Sp_counted_ptr_inplaceIN7libyang5IdentESaIS1_ELN9__gnu_cxx12_Lock_policyE2EED0Ev@Base 0.16.52
 (optional)_ZNSt23_Sp_counted_ptr_inplaceIN7libyang5IdentESaIS1_ELN9__gnu_cxx12_Lock_policyE2EED1Ev@Base 0.16.52
 (optional)_ZNSt23_Sp_counted_ptr_inplaceIN7libyang5IdentESaIS1_ELN9__gnu_cxx12_Lock_policyE2EED2Ev@Base 0.16.52
 (optional)_ZNSt23_Sp_counted_ptr_inplaceIN7libyang5RestrESaIS1_ELN9__gnu_cxx12_Lock_policyE2EE10_M_destroyEv@Base 0.16.52
 (optional)_ZNSt23_Sp_counted_ptr_inplaceIN7libyang5RestrESaIS1_ELN9__gnu_cxx12_Lock_policyE2EE10_M_disposeEv@Base 0.16.52
 (optional)_ZNSt23_Sp_counted_ptr_inplaceIN7libyang5RestrESaIS1_ELN9__gnu_cxx12_Lock_policyE2EE14_M_get_deleterERKSt9type_info@Base 0.16.52
 (optional)_ZNSt23_Sp_counted_ptr_inplaceIN7libyang5RestrESaIS1_ELN9__gnu_cxx12_Lock_policyE2EED0Ev@Base 0.16.52
 (optional)_ZNSt23_Sp_counted_ptr_inplaceIN7libyang5RestrESaIS1_ELN9__gnu_cxx12_Lock_policyE2EED1Ev@Base 0.16.52
 (optional)_ZNSt23_Sp_counted_ptr_inplaceIN7libyang5RestrESaIS1_ELN9__gnu_cxx12_Lock_policyE2EED2Ev@Base 0.16.52
 (optional)_ZNSt23_Sp_counted_ptr_inplaceIN7libyang5ValueESaIS1_ELN9__gnu_cxx12_Lock_policyE2EE10_M_destroyEv@Base 0.16.52
 (optional)_ZNSt23_Sp_counted_ptr_inplaceIN7libyang5ValueESaIS1_ELN9__gnu_cxx12_Lock_policyE2EE10_M_disposeEv@Base 0.16.52
 (optional)_ZNSt23_Sp_counted_ptr_inplaceIN7libyang5ValueESaIS1_ELN9__gnu_cxx12_Lock_policyE2EE14_M_get_deleterERKSt9type_info@Base 0.16.52
 (optional)_ZNSt23_Sp_counted_ptr_inplaceIN7libyang5ValueESaIS1_ELN9__gnu_cxx12_Lock_policyE2EED0Ev@Base 0.16.52
 (optional)_ZNSt23_Sp_counted_ptr_inplaceIN7libyang5ValueESaIS1_ELN9__gnu_cxx12_Lock_policyE2EED1Ev@Base 0.16.52
 (optional)_ZNSt23_Sp_counted_ptr_inplaceIN7libyang5ValueESaIS1_ELN9__gnu_cxx12_Lock_policyE2EED2Ev@Base 0.16.52
 (optional)_ZNSt23_Sp_counted_ptr_inplaceIN7libyang6ModuleESaIS1_ELN9__gnu_cxx12_Lock_policyE2EE10_M_destroyEv@Base 0.16.52
 (optional)_ZNSt23_Sp_counted_ptr_inplaceIN7libyang6ModuleESaIS1_ELN9__gnu_cxx12_Lock_policyE2EE10_M_disposeEv@Base 0.16.52
 (optional)_ZNSt23_Sp_counted_ptr_inplaceIN7libyang6ModuleESaIS1_ELN9__gnu_cxx12_Lock_policyE2EE14_M_get_deleterERKSt9type_info@Base 0.16.52
 (optional)_ZNSt23_Sp_counted_ptr_inplaceIN7libyang6ModuleESaIS1_ELN9__gnu_cxx12_Lock_policyE2EED0Ev@Base 0.16.52
 (optional)_ZNSt23_Sp_counted_ptr_inplaceIN7libyang6ModuleESaIS1_ELN9__gnu_cxx12_Lock_policyE2EED1Ev@Base 0.16.52
 (optional)_ZNSt23_Sp_counted_ptr_inplaceIN7libyang6ModuleESaIS1_ELN9__gnu_cxx12_Lock_policyE2EED2Ev@Base 0.16.52
 (optional)_ZNSt23_Sp_counted_ptr_inplaceIN7libyang6RefineESaIS1_ELN9__gnu_cxx12_Lock_policyE2EE10_M_destroyEv@Base 0.16.52
 (optional)_ZNSt23_Sp_counted_ptr_inplaceIN7libyang6RefineESaIS1_ELN9__gnu_cxx12_Lock_policyE2EE10_M_disposeEv@Base 0.16.52
 (optional)_ZNSt23_Sp_counted_ptr_inplaceIN7libyang6RefineESaIS1_ELN9__gnu_cxx12_Lock_policyE2EE14_M_get_deleterERKSt9type_info@Base 0.16.52
 (optional)_ZNSt23_Sp_counted_ptr_inplaceIN7libyang6RefineESaIS1_ELN9__gnu_cxx12_Lock_policyE2EED0Ev@Base 0.16.52
 (optional)_ZNSt23_Sp_counted_ptr_inplaceIN7libyang6RefineESaIS1_ELN9__gnu_cxx12_Lock_policyE2EED1Ev@Base 0.16.52
 (optional)_ZNSt23_Sp_counted_ptr_inplaceIN7libyang6RefineESaIS1_ELN9__gnu_cxx12_Lock_policyE2EED2Ev@Base 0.16.52
 (optional)_ZNSt23_Sp_counted_ptr_inplaceIN7libyang6UniqueESaIS1_ELN9__gnu_cxx12_Lock_policyE2EE10_M_destroyEv@Base 0.16.52
 (optional)_ZNSt23_Sp_counted_ptr_inplaceIN7libyang6UniqueESaIS1_ELN9__gnu_cxx12_Lock_policyE2EE10_M_disposeEv@Base 0.16.52
 (optional)_ZNSt23_Sp_counted_ptr_inplaceIN7libyang6UniqueESaIS1_ELN9__gnu_cxx12_Lock_policyE2EE14_M_get_deleterERKSt9type_info@Base 0.16.52
 (optional)_ZNSt23_Sp_counted_ptr_inplaceIN7libyang6UniqueESaIS1_ELN9__gnu_cxx12_Lock_policyE2EED0Ev@Base 0.16.52
 (optional)_ZNSt23_Sp_counted_ptr_inplaceIN7libyang6UniqueESaIS1_ELN9__gnu_cxx12_Lock_policyE2EED1Ev@Base 0.16.52
 (optional)_ZNSt23_Sp_counted_ptr_inplaceIN7libyang6UniqueESaIS1_ELN9__gnu_cxx12_Lock_policyE2EED2Ev@Base 0.16.52
 (optional)_ZNSt23_Sp_counted_ptr_inplaceIN7libyang6Xml_NsESaIS1_ELN9__gnu_cxx12_Lock_policyE2EE10_M_destroyEv@Base 0.16.52
 (optional)_ZNSt23_Sp_counted_ptr_inplaceIN7libyang6Xml_NsESaIS1_ELN9__gnu_cxx12_Lock_policyE2EE10_M_disposeEv@Base 0.16.52
 (optional)_ZNSt23_Sp_counted_ptr_inplaceIN7libyang6Xml_NsESaIS1_ELN9__gnu_cxx12_Lock_policyE2EE14_M_get_deleterERKSt9type_info@Base 0.16.52
 (optional)_ZNSt23_Sp_counted_ptr_inplaceIN7libyang6Xml_NsESaIS1_ELN9__gnu_cxx12_Lock_policyE2EED0Ev@Base 0.16.52
 (optional)_ZNSt23_Sp_counted_ptr_inplaceIN7libyang6Xml_NsESaIS1_ELN9__gnu_cxx12_Lock_policyE2EED1Ev@Base 0.16.52
 (optional)_ZNSt23_Sp_counted_ptr_inplaceIN7libyang6Xml_NsESaIS1_ELN9__gnu_cxx12_Lock_policyE2EED2Ev@Base 0.16.52
 (optional)_ZNSt23_Sp_counted_ptr_inplaceIN7libyang7ContextESaIS1_ELN9__gnu_cxx12_Lock_policyE2EE10_M_destroyEv@Base 0.16.52
 (optional)_ZNSt23_Sp_counted_ptr_inplaceIN7libyang7ContextESaIS1_ELN9__gnu_cxx12_Lock_policyE2EE10_M_disposeEv@Base 0.16.52
 (optional)_ZNSt23_Sp_counted_ptr_inplaceIN7libyang7ContextESaIS1_ELN9__gnu_cxx12_Lock_policyE2EE14_M_get_deleterERKSt9type_info@Base 0.16.52
 (optional)_ZNSt23_Sp_counted_ptr_inplaceIN7libyang7ContextESaIS1_ELN9__gnu_cxx12_Lock_policyE2EED0Ev@Base 0.16.52
 (optional)_ZNSt23_Sp_counted_ptr_inplaceIN7libyang7ContextESaIS1_ELN9__gnu_cxx12_Lock_policyE2EED1Ev@Base 0.16.52
 (optional)_ZNSt23_Sp_counted_ptr_inplaceIN7libyang7ContextESaIS1_ELN9__gnu_cxx12_Lock_policyE2EED2Ev@Base 0.16.52
 (optional)_ZNSt23_Sp_counted_ptr_inplaceIN7libyang7DeleterESaIS1_ELN9__gnu_cxx12_Lock_policyE2EE10_M_destroyEv@Base 0.16.52
 (optional)_ZNSt23_Sp_counted_ptr_inplaceIN7libyang7DeleterESaIS1_ELN9__gnu_cxx12_Lock_policyE2EE10_M_disposeEv@Base 0.16.52
 (optional)_ZNSt23_Sp_counted_ptr_inplaceIN7libyang7DeleterESaIS1_ELN9__gnu_cxx12_Lock_policyE2EE14_M_get_deleterERKSt9type_info@Base 0.16.52
 (optional)_ZNSt23_Sp_counted_ptr_inplaceIN7libyang7DeleterESaIS1_ELN9__gnu_cxx12_Lock_policyE2EED0Ev@Base 0.16.52
 (optional)_ZNSt23_Sp_counted_ptr_inplaceIN7libyang7DeleterESaIS1_ELN9__gnu_cxx12_Lock_policyE2EED1Ev@Base 0.16.52
 (optional)_ZNSt23_Sp_counted_ptr_inplaceIN7libyang7DeleterESaIS1_ELN9__gnu_cxx12_Lock_policyE2EED2Ev@Base 0.16.52
 (optional)_ZNSt23_Sp_counted_ptr_inplaceIN7libyang7DeviateESaIS1_ELN9__gnu_cxx12_Lock_policyE2EE10_M_destroyEv@Base 0.16.52
 (optional)_ZNSt23_Sp_counted_ptr_inplaceIN7libyang7DeviateESaIS1_ELN9__gnu_cxx12_Lock_policyE2EE10_M_disposeEv@Base 0.16.52
 (optional)_ZNSt23_Sp_counted_ptr_inplaceIN7libyang7DeviateESaIS1_ELN9__gnu_cxx12_Lock_policyE2EE14_M_get_deleterERKSt9type_info@Base 0.16.52
 (optional)_ZNSt23_Sp_counted_ptr_inplaceIN7libyang7DeviateESaIS1_ELN9__gnu_cxx12_Lock_policyE2EED0Ev@Base 0.16.52
 (optional)_ZNSt23_Sp_counted_ptr_inplaceIN7libyang7DeviateESaIS1_ELN9__gnu_cxx12_Lock_policyE2EED1Ev@Base 0.16.52
 (optional)_ZNSt23_Sp_counted_ptr_inplaceIN7libyang7DeviateESaIS1_ELN9__gnu_cxx12_Lock_policyE2EED2Ev@Base 0.16.52
 (optional)_ZNSt23_Sp_counted_ptr_inplaceIN7libyang7FeatureESaIS1_ELN9__gnu_cxx12_Lock_policyE2EE10_M_destroyEv@Base 0.16.52
 (optional)_ZNSt23_Sp_counted_ptr_inplaceIN7libyang7FeatureESaIS1_ELN9__gnu_cxx12_Lock_policyE2EE10_M_disposeEv@Base 0.16.52
 (optional)_ZNSt23_Sp_counted_ptr_inplaceIN7libyang7FeatureESaIS1_ELN9__gnu_cxx12_Lock_policyE2EE14_M_get_deleterERKSt9type_info@Base 0.16.52
 (optional)_ZNSt23_Sp_counted_ptr_inplaceIN7libyang7FeatureESaIS1_ELN9__gnu_cxx12_Lock_policyE2EED0Ev@Base 0.16.52
 (optional)_ZNSt23_Sp_counted_ptr_inplaceIN7libyang7FeatureESaIS1_ELN9__gnu_cxx12_Lock_policyE2EED1Ev@Base 0.16.52
 (optional)_ZNSt23_Sp_counted_ptr_inplaceIN7libyang7FeatureESaIS1_ELN9__gnu_cxx12_Lock_policyE2EED2Ev@Base 0.16.52
 (optional)_ZNSt23_Sp_counted_ptr_inplaceIN7libyang8DifflistESaIS1_ELN9__gnu_cxx12_Lock_policyE2EE10_M_destroyEv@Base 0.16.52
 (optional)_ZNSt23_Sp_counted_ptr_inplaceIN7libyang8DifflistESaIS1_ELN9__gnu_cxx12_Lock_policyE2EE10_M_disposeEv@Base 0.16.52
 (optional)_ZNSt23_Sp_counted_ptr_inplaceIN7libyang8DifflistESaIS1_ELN9__gnu_cxx12_Lock_policyE2EE14_M_get_deleterERKSt9type_info@Base 0.16.52
 (optional)_ZNSt23_Sp_counted_ptr_inplaceIN7libyang8DifflistESaIS1_ELN9__gnu_cxx12_Lock_policyE2EED0Ev@Base 0.16.52
 (optional)_ZNSt23_Sp_counted_ptr_inplaceIN7libyang8DifflistESaIS1_ELN9__gnu_cxx12_Lock_policyE2EED1Ev@Base 0.16.52
 (optional)_ZNSt23_Sp_counted_ptr_inplaceIN7libyang8DifflistESaIS1_ELN9__gnu_cxx12_Lock_policyE2EED2Ev@Base 0.16.52
 (optional)_ZNSt23_Sp_counted_ptr_inplaceIN7libyang8RevisionESaIS1_ELN9__gnu_cxx12_Lock_policyE2EE10_M_destroyEv@Base 0.16.52
 (optional)_ZNSt23_Sp_counted_ptr_inplaceIN7libyang8RevisionESaIS1_ELN9__gnu_cxx12_Lock_policyE2EE10_M_disposeEv@Base 0.16.52
 (optional)_ZNSt23_Sp_counted_ptr_inplaceIN7libyang8RevisionESaIS1_ELN9__gnu_cxx12_Lock_policyE2EE14_M_get_deleterERKSt9type_info@Base 0.16.52
 (optional)_ZNSt23_Sp_counted_ptr_inplaceIN7libyang8RevisionESaIS1_ELN9__gnu_cxx12_Lock_policyE2EED0Ev@Base 0.16.52
 (optional)_ZNSt23_Sp_counted_ptr_inplaceIN7libyang8RevisionESaIS1_ELN9__gnu_cxx12_Lock_policyE2EED1Ev@Base 0.16.52
 (optional)_ZNSt23_Sp_counted_ptr_inplaceIN7libyang8RevisionESaIS1_ELN9__gnu_cxx12_Lock_policyE2EED2Ev@Base 0.16.52
 (optional)_ZNSt23_Sp_counted_ptr_inplaceIN7libyang8Type_BitESaIS1_ELN9__gnu_cxx12_Lock_policyE2EE10_M_destroyEv@Base 0.16.52
 (optional)_ZNSt23_Sp_counted_ptr_inplaceIN7libyang8Type_BitESaIS1_ELN9__gnu_cxx12_Lock_policyE2EE10_M_disposeEv@Base 0.16.52
 (optional)_ZNSt23_Sp_counted_ptr_inplaceIN7libyang8Type_BitESaIS1_ELN9__gnu_cxx12_Lock_policyE2EE14_M_get_deleterERKSt9type_info@Base 0.16.52
 (optional)_ZNSt23_Sp_counted_ptr_inplaceIN7libyang8Type_BitESaIS1_ELN9__gnu_cxx12_Lock_policyE2EED0Ev@Base 0.16.52
 (optional)_ZNSt23_Sp_counted_ptr_inplaceIN7libyang8Type_BitESaIS1_ELN9__gnu_cxx12_Lock_policyE2EED1Ev@Base 0.16.52
 (optional)_ZNSt23_Sp_counted_ptr_inplaceIN7libyang8Type_BitESaIS1_ELN9__gnu_cxx12_Lock_policyE2EED2Ev@Base 0.16.52
 (optional)_ZNSt23_Sp_counted_ptr_inplaceIN7libyang8Xml_AttrESaIS1_ELN9__gnu_cxx12_Lock_policyE2EE10_M_destroyEv@Base 0.16.52
 (optional)_ZNSt23_Sp_counted_ptr_inplaceIN7libyang8Xml_AttrESaIS1_ELN9__gnu_cxx12_Lock_policyE2EE10_M_disposeEv@Base 0.16.52
 (optional)_ZNSt23_Sp_counted_ptr_inplaceIN7libyang8Xml_AttrESaIS1_ELN9__gnu_cxx12_Lock_policyE2EE14_M_get_deleterERKSt9type_info@Base 0.16.52
 (optional)_ZNSt23_Sp_counted_ptr_inplaceIN7libyang8Xml_AttrESaIS1_ELN9__gnu_cxx12_Lock_policyE2EED0Ev@Base 0.16.52
 (optional)_ZNSt23_Sp_counted_ptr_inplaceIN7libyang8Xml_AttrESaIS1_ELN9__gnu_cxx12_Lock_policyE2EED1Ev@Base 0.16.52
 (optional)_ZNSt23_Sp_counted_ptr_inplaceIN7libyang8Xml_AttrESaIS1_ELN9__gnu_cxx12_Lock_policyE2EED2Ev@Base 0.16.52
 (optional)_ZNSt23_Sp_counted_ptr_inplaceIN7libyang8Xml_ElemESaIS1_ELN9__gnu_cxx12_Lock_policyE2EE10_M_destroyEv@Base 0.16.52
 (optional)_ZNSt23_Sp_counted_ptr_inplaceIN7libyang8Xml_ElemESaIS1_ELN9__gnu_cxx12_Lock_policyE2EE10_M_disposeEv@Base 0.16.52
 (optional)_ZNSt23_Sp_counted_ptr_inplaceIN7libyang8Xml_ElemESaIS1_ELN9__gnu_cxx12_Lock_policyE2EE14_M_get_deleterERKSt9type_info@Base 0.16.52
 (optional)_ZNSt23_Sp_counted_ptr_inplaceIN7libyang8Xml_ElemESaIS1_ELN9__gnu_cxx12_Lock_policyE2EED0Ev@Base 0.16.52
 (optional)_ZNSt23_Sp_counted_ptr_inplaceIN7libyang8Xml_ElemESaIS1_ELN9__gnu_cxx12_Lock_policyE2EED1Ev@Base 0.16.52
 (optional)_ZNSt23_Sp_counted_ptr_inplaceIN7libyang8Xml_ElemESaIS1_ELN9__gnu_cxx12_Lock_policyE2EED2Ev@Base 0.16.52
 (optional)_ZNSt23_Sp_counted_ptr_inplaceIN7libyang9Data_NodeESaIS1_ELN9__gnu_cxx12_Lock_policyE2EE10_M_destroyEv@Base 0.16.52
 (optional)_ZNSt23_Sp_counted_ptr_inplaceIN7libyang9Data_NodeESaIS1_ELN9__gnu_cxx12_Lock_policyE2EE10_M_disposeEv@Base 0.16.52
 (optional)_ZNSt23_Sp_counted_ptr_inplaceIN7libyang9Data_NodeESaIS1_ELN9__gnu_cxx12_Lock_policyE2EE14_M_get_deleterERKSt9type_info@Base 0.16.52
 (optional)_ZNSt23_Sp_counted_ptr_inplaceIN7libyang9Data_NodeESaIS1_ELN9__gnu_cxx12_Lock_policyE2EED0Ev@Base 0.16.52
 (optional)_ZNSt23_Sp_counted_ptr_inplaceIN7libyang9Data_NodeESaIS1_ELN9__gnu_cxx12_Lock_policyE2EED1Ev@Base 0.16.52
 (optional)_ZNSt23_Sp_counted_ptr_inplaceIN7libyang9Data_NodeESaIS1_ELN9__gnu_cxx12_Lock_policyE2EED2Ev@Base 0.16.52
 (optional)_ZNSt23_Sp_counted_ptr_inplaceIN7libyang9DeviationESaIS1_ELN9__gnu_cxx12_Lock_policyE2EE10_M_destroyEv@Base 0.16.52
 (optional)_ZNSt23_Sp_counted_ptr_inplaceIN7libyang9DeviationESaIS1_ELN9__gnu_cxx12_Lock_policyE2EE10_M_disposeEv@Base 0.16.52
 (optional)_ZNSt23_Sp_counted_ptr_inplaceIN7libyang9DeviationESaIS1_ELN9__gnu_cxx12_Lock_policyE2EE14_M_get_deleterERKSt9type_info@Base 0.16.52
 (optional)_ZNSt23_Sp_counted_ptr_inplaceIN7libyang9DeviationESaIS1_ELN9__gnu_cxx12_Lock_policyE2EED0Ev@Base 0.16.52
 (optional)_ZNSt23_Sp_counted_ptr_inplaceIN7libyang9DeviationESaIS1_ELN9__gnu_cxx12_Lock_policyE2EED1Ev@Base 0.16.52
 (optional)_ZNSt23_Sp_counted_ptr_inplaceIN7libyang9DeviationESaIS1_ELN9__gnu_cxx12_Lock_policyE2EED2Ev@Base 0.16.52
 (optional)_ZNSt23_Sp_counted_ptr_inplaceIN7libyang9IffeatureESaIS1_ELN9__gnu_cxx12_Lock_policyE2EE10_M_destroyEv@Base 0.16.52
 (optional)_ZNSt23_Sp_counted_ptr_inplaceIN7libyang9IffeatureESaIS1_ELN9__gnu_cxx12_Lock_policyE2EE10_M_disposeEv@Base 0.16.52
 (optional)_ZNSt23_Sp_counted_ptr_inplaceIN7libyang9IffeatureESaIS1_ELN9__gnu_cxx12_Lock_policyE2EE14_M_get_deleterERKSt9type_info@Base 0.16.52
 (optional)_ZNSt23_Sp_counted_ptr_inplaceIN7libyang9IffeatureESaIS1_ELN9__gnu_cxx12_Lock_policyE2EED0Ev@Base 0.16.52
 (optional)_ZNSt23_Sp_counted_ptr_inplaceIN7libyang9IffeatureESaIS1_ELN9__gnu_cxx12_Lock_policyE2EED1Ev@Base 0.16.52
 (optional)_ZNSt23_Sp_counted_ptr_inplaceIN7libyang9IffeatureESaIS1_ELN9__gnu_cxx12_Lock_policyE2EED2Ev@Base 0.16.52
 (optional)_ZNSt23_Sp_counted_ptr_inplaceIN7libyang9SubmoduleESaIS1_ELN9__gnu_cxx12_Lock_policyE2EE10_M_destroyEv@Base 0.16.52
 (optional)_ZNSt23_Sp_counted_ptr_inplaceIN7libyang9SubmoduleESaIS1_ELN9__gnu_cxx12_Lock_policyE2EE10_M_disposeEv@Base 0.16.52
 (optional)_ZNSt23_Sp_counted_ptr_inplaceIN7libyang9SubmoduleESaIS1_ELN9__gnu_cxx12_Lock_policyE2EE14_M_get_deleterERKSt9type_info@Base 0.16.52
 (optional)_ZNSt23_Sp_counted_ptr_inplaceIN7libyang9SubmoduleESaIS1_ELN9__gnu_cxx12_Lock_policyE2EED0Ev@Base 0.16.52
 (optional)_ZNSt23_Sp_counted_ptr_inplaceIN7libyang9SubmoduleESaIS1_ELN9__gnu_cxx12_Lock_policyE2EED1Ev@Base 0.16.52
 (optional)_ZNSt23_Sp_counted_ptr_inplaceIN7libyang9SubmoduleESaIS1_ELN9__gnu_cxx12_Lock_policyE2EED2Ev@Base 0.16.52
 (optional)_ZNSt23_Sp_counted_ptr_inplaceIN7libyang9Type_EnumESaIS1_ELN9__gnu_cxx12_Lock_policyE2EE10_M_destroyEv@Base 0.16.52
 (optional)_ZNSt23_Sp_counted_ptr_inplaceIN7libyang9Type_EnumESaIS1_ELN9__gnu_cxx12_Lock_policyE2EE10_M_disposeEv@Base 0.16.52
 (optional)_ZNSt23_Sp_counted_ptr_inplaceIN7libyang9Type_EnumESaIS1_ELN9__gnu_cxx12_Lock_policyE2EE14_M_get_deleterERKSt9type_info@Base 0.16.52
 (optional)_ZNSt23_Sp_counted_ptr_inplaceIN7libyang9Type_EnumESaIS1_ELN9__gnu_cxx12_Lock_policyE2EED0Ev@Base 0.16.52
 (optional)_ZNSt23_Sp_counted_ptr_inplaceIN7libyang9Type_EnumESaIS1_ELN9__gnu_cxx12_Lock_policyE2EED1Ev@Base 0.16.52
 (optional)_ZNSt23_Sp_counted_ptr_inplaceIN7libyang9Type_EnumESaIS1_ELN9__gnu_cxx12_Lock_policyE2EED2Ev@Base 0.16.52
 (optional)_ZNSt23_Sp_counted_ptr_inplaceIN7libyang9Type_InfoESaIS1_ELN9__gnu_cxx12_Lock_policyE2EE10_M_destroyEv@Base 0.16.52
 (optional)_ZNSt23_Sp_counted_ptr_inplaceIN7libyang9Type_InfoESaIS1_ELN9__gnu_cxx12_Lock_policyE2EE10_M_disposeEv@Base 0.16.52
 (optional)_ZNSt23_Sp_counted_ptr_inplaceIN7libyang9Type_InfoESaIS1_ELN9__gnu_cxx12_Lock_policyE2EE14_M_get_deleterERKSt9type_info@Base 0.16.52
 (optional)_ZNSt23_Sp_counted_ptr_inplaceIN7libyang9Type_InfoESaIS1_ELN9__gnu_cxx12_Lock_policyE2EED0Ev@Base 0.16.52
 (optional)_ZNSt23_Sp_counted_ptr_inplaceIN7libyang9Type_InfoESaIS1_ELN9__gnu_cxx12_Lock_policyE2EED1Ev@Base 0.16.52
 (optional)_ZNSt23_Sp_counted_ptr_inplaceIN7libyang9Type_InfoESaIS1_ELN9__gnu_cxx12_Lock_policyE2EED2Ev@Base 0.16.52
 (optional)_ZNSt6vectorISt10shared_ptrIN7libyang11Schema_NodeEESaIS3_EE12emplace_backIJS3_EEEvDpOT_@Base 0.16.52
 (optional)_ZNSt6vectorISt10shared_ptrIN7libyang11Schema_NodeEESaIS3_EE17_M_realloc_insertIJS3_EEEvN9__gnu_cxx17__normal_iteratorIPS3_S5_EEDpOT_@Base 0.16.52
 (optional)_ZNSt6vectorISt10shared_ptrIN7libyang11Schema_NodeEESaIS3_EED1Ev@Base 0.16.52
 (optional)_ZNSt6vectorISt10shared_ptrIN7libyang11Schema_NodeEESaIS3_EED2Ev@Base 0.16.52
 (optional)_ZNSt6vectorISt10shared_ptrIN7libyang12Ext_InstanceEESaIS3_EE12emplace_backIJS3_EEEvDpOT_@Base 0.16.52
 (optional)_ZNSt6vectorISt10shared_ptrIN7libyang12Ext_InstanceEESaIS3_EE17_M_realloc_insertIJS3_EEEvN9__gnu_cxx17__normal_iteratorIPS3_S5_EEDpOT_@Base 0.16.52
 (optional)_ZNSt6vectorISt10shared_ptrIN7libyang12Ext_InstanceEESaIS3_EED1Ev@Base 0.16.52
 (optional)_ZNSt6vectorISt10shared_ptrIN7libyang12Ext_InstanceEESaIS3_EED2Ev@Base 0.16.52
 (optional)_ZNSt6vectorISt10shared_ptrIN7libyang16Schema_Node_LeafEESaIS3_EE17_M_realloc_insertIJS3_EEEvN9__gnu_cxx17__normal_iteratorIPS3_S5_EEDpOT_@Base 0.16.52
 (optional)_ZNSt6vectorISt10shared_ptrIN7libyang16Schema_Node_LeafEESaIS3_EED1Ev@Base 0.16.52
 (optional)_ZNSt6vectorISt10shared_ptrIN7libyang16Schema_Node_LeafEESaIS3_EED2Ev@Base 0.16.52
 (optional)_ZNSt6vectorISt10shared_ptrIN7libyang19Schema_Node_AugmentEESaIS3_EE17_M_realloc_insertIJS3_EEEvN9__gnu_cxx17__normal_iteratorIPS3_S5_EEDpOT_@Base 0.16.52
 (optional)_ZNSt6vectorISt10shared_ptrIN7libyang19Schema_Node_AugmentEESaIS3_EED1Ev@Base 0.16.52
 (optional)_ZNSt6vectorISt10shared_ptrIN7libyang19Schema_Node_AugmentEESaIS3_EED2Ev@Base 0.16.52
 (optional)_ZNSt6vectorISt10shared_ptrIN7libyang4TpdfEESaIS3_EE12emplace_backIJS3_EEEvDpOT_@Base 0.16.52
 (optional)_ZNSt6vectorISt10shared_ptrIN7libyang4TpdfEESaIS3_EE17_M_realloc_insertIJS3_EEEvN9__gnu_cxx17__normal_iteratorIPS3_S5_EEDpOT_@Base 0.16.52
 (optional)_ZNSt6vectorISt10shared_ptrIN7libyang4TpdfEESaIS3_EED1Ev@Base 0.16.52
 (optional)_ZNSt6vectorISt10shared_ptrIN7libyang4TpdfEESaIS3_EED2Ev@Base 0.16.52
 (optional)_ZNSt6vectorISt10shared_ptrIN7libyang4TypeEESaIS3_EE17_M_realloc_insertIJS3_EEEvN9__gnu_cxx17__normal_iteratorIPS3_S5_EEDpOT_@Base 0.16.52
 (optional)_ZNSt6vectorISt10shared_ptrIN7libyang4TypeEESaIS3_EED1Ev@Base 0.16.52
 (optional)_ZNSt6vectorISt10shared_ptrIN7libyang4TypeEESaIS3_EED2Ev@Base 0.16.52
 (optional)_ZNSt6vectorISt10shared_ptrIN7libyang5ErrorEESaIS3_EE17_M_realloc_insertIJS3_EEEvN9__gnu_cxx17__normal_iteratorIPS3_S5_EEDpOT_@Base 0.16.52
 (optional)_ZNSt6vectorISt10shared_ptrIN7libyang5IdentEESaIS3_EE12emplace_backIJS3_EEEvDpOT_@Base 0.16.52
 (optional)_ZNSt6vectorISt10shared_ptrIN7libyang5IdentEESaIS3_EE17_M_realloc_insertIJS3_EEEvN9__gnu_cxx17__normal_iteratorIPS3_S5_EEDpOT_@Base 0.16.52
 (optional)_ZNSt6vectorISt10shared_ptrIN7libyang5IdentEESaIS3_EED1Ev@Base 0.16.52
 (optional)_ZNSt6vectorISt10shared_ptrIN7libyang5IdentEESaIS3_EED2Ev@Base 0.16.52
 (optional)_ZNSt6vectorISt10shared_ptrIN7libyang5RestrEESaIS3_EE12emplace_backIJS3_EEEvDpOT_@Base 0.16.52
 (optional)_ZNSt6vectorISt10shared_ptrIN7libyang5RestrEESaIS3_EE17_M_realloc_insertIJS3_EEEvN9__gnu_cxx17__normal_iteratorIPS3_S5_EEDpOT_@Base 0.16.52
 (optional)_ZNSt6vectorISt10shared_ptrIN7libyang5RestrEESaIS3_EED1Ev@Base 0.16.52
 (optional)_ZNSt6vectorISt10shared_ptrIN7libyang5RestrEESaIS3_EED2Ev@Base 0.16.52
 (optional)_ZNSt6vectorISt10shared_ptrIN7libyang6ModuleEESaIS3_EE12emplace_backIJS3_EEEvDpOT_@Base 0.16.52
 (optional)_ZNSt6vectorISt10shared_ptrIN7libyang6ModuleEESaIS3_EE17_M_realloc_insertIJS3_EEEvN9__gnu_cxx17__normal_iteratorIPS3_S5_EEDpOT_@Base 0.16.52
 (optional)_ZNSt6vectorISt10shared_ptrIN7libyang6ModuleEESaIS3_EED1Ev@Base 0.16.52
 (optional)_ZNSt6vectorISt10shared_ptrIN7libyang6ModuleEESaIS3_EED2Ev@Base 0.16.52
 (optional)_ZNSt6vectorISt10shared_ptrIN7libyang6RefineEESaIS3_EE17_M_realloc_insertIJS3_EEEvN9__gnu_cxx17__normal_iteratorIPS3_S5_EEDpOT_@Base 0.16.52
 (optional)_ZNSt6vectorISt10shared_ptrIN7libyang6RefineEESaIS3_EED1Ev@Base 0.16.52
 (optional)_ZNSt6vectorISt10shared_ptrIN7libyang6RefineEESaIS3_EED2Ev@Base 0.16.52
 (optional)_ZNSt6vectorISt10shared_ptrIN7libyang6UniqueEESaIS3_EE17_M_realloc_insertIJS3_EEEvN9__gnu_cxx17__normal_iteratorIPS3_S5_EEDpOT_@Base 0.16.52
 (optional)_ZNSt6vectorISt10shared_ptrIN7libyang6UniqueEESaIS3_EED1Ev@Base 0.16.52
 (optional)_ZNSt6vectorISt10shared_ptrIN7libyang6UniqueEESaIS3_EED2Ev@Base 0.16.52
 (optional)_ZNSt6vectorISt10shared_ptrIN7libyang7DeviateEESaIS3_EE17_M_realloc_insertIJS3_EEEvN9__gnu_cxx17__normal_iteratorIPS3_S5_EEDpOT_@Base 0.16.52
 (optional)_ZNSt6vectorISt10shared_ptrIN7libyang7DeviateEESaIS3_EED1Ev@Base 0.16.52
 (optional)_ZNSt6vectorISt10shared_ptrIN7libyang7DeviateEESaIS3_EED2Ev@Base 0.16.52
 (optional)_ZNSt6vectorISt10shared_ptrIN7libyang7FeatureEESaIS3_EE17_M_realloc_insertIJS3_EEEvN9__gnu_cxx17__normal_iteratorIPS3_S5_EEDpOT_@Base 0.16.52
 (optional)_ZNSt6vectorISt10shared_ptrIN7libyang7FeatureEESaIS3_EED1Ev@Base 0.16.52
 (optional)_ZNSt6vectorISt10shared_ptrIN7libyang7FeatureEESaIS3_EED2Ev@Base 0.16.52
 (optional)_ZNSt6vectorISt10shared_ptrIN7libyang8Type_BitEESaIS3_EE17_M_realloc_insertIJS3_EEEvN9__gnu_cxx17__normal_iteratorIPS3_S5_EEDpOT_@Base 0.16.52
 (optional)_ZNSt6vectorISt10shared_ptrIN7libyang8Type_BitEESaIS3_EED1Ev@Base 0.16.52
 (optional)_ZNSt6vectorISt10shared_ptrIN7libyang8Type_BitEESaIS3_EED2Ev@Base 0.16.52
 (optional)_ZNSt6vectorISt10shared_ptrIN7libyang8Xml_ElemEESaIS3_EE12emplace_backIJS3_EEEvDpOT_@Base 0.16.52
 (optional)_ZNSt6vectorISt10shared_ptrIN7libyang8Xml_ElemEESaIS3_EE17_M_realloc_insertIJS3_EEEvN9__gnu_cxx17__normal_iteratorIPS3_S5_EEDpOT_@Base 0.16.52
 (optional)_ZNSt6vectorISt10shared_ptrIN7libyang8Xml_ElemEESaIS3_EED1Ev@Base 0.16.52
 (optional)_ZNSt6vectorISt10shared_ptrIN7libyang8Xml_ElemEESaIS3_EED2Ev@Base 0.16.52
 (optional)_ZNSt6vectorISt10shared_ptrIN7libyang9Data_NodeEESaIS3_EE12emplace_backIJS3_EEEvDpOT_@Base 0.16.52
 (optional)_ZNSt6vectorISt10shared_ptrIN7libyang9Data_NodeEESaIS3_EE17_M_realloc_insertIJS3_EEEvN9__gnu_cxx17__normal_iteratorIPS3_S5_EEDpOT_@Base 0.16.52
 (optional)_ZNSt6vectorISt10shared_ptrIN7libyang9Data_NodeEESaIS3_EED1Ev@Base 0.16.52
 (optional)_ZNSt6vectorISt10shared_ptrIN7libyang9Data_NodeEESaIS3_EED2Ev@Base 0.16.52
 (optional)_ZNSt6vectorISt10shared_ptrIN7libyang9DeviationEESaIS3_EE12emplace_backIJS3_EEEvDpOT_@Base 0.16.52
 (optional)_ZNSt6vectorISt10shared_ptrIN7libyang9DeviationEESaIS3_EE17_M_realloc_insertIJS3_EEEvN9__gnu_cxx17__normal_iteratorIPS3_S5_EEDpOT_@Base 0.16.52
 (optional)_ZNSt6vectorISt10shared_ptrIN7libyang9DeviationEESaIS3_EED1Ev@Base 0.16.52
 (optional)_ZNSt6vectorISt10shared_ptrIN7libyang9DeviationEESaIS3_EED2Ev@Base 0.16.52
 (optional)_ZNSt6vectorISt10shared_ptrIN7libyang9IffeatureEESaIS3_EE12emplace_backIJS3_EEEvDpOT_@Base 0.16.52
 (optional)_ZNSt6vectorISt10shared_ptrIN7libyang9IffeatureEESaIS3_EE17_M_realloc_insertIJS3_EEEvN9__gnu_cxx17__normal_iteratorIPS3_S5_EEDpOT_@Base 0.16.52
 (optional)_ZNSt6vectorISt10shared_ptrIN7libyang9IffeatureEESaIS3_EED1Ev@Base 0.16.52
 (optional)_ZNSt6vectorISt10shared_ptrIN7libyang9IffeatureEESaIS3_EED2Ev@Base 0.16.52
 (optional)_ZNSt6vectorISt10shared_ptrIN7libyang9Type_EnumEESaIS3_EE17_M_realloc_insertIJS3_EEEvN9__gnu_cxx17__normal_iteratorIPS3_S5_EEDpOT_@Base 0.16.52
 (optional)_ZNSt6vectorISt10shared_ptrIN7libyang9Type_EnumEESaIS3_EED1Ev@Base 0.16.52
 (optional)_ZNSt6vectorISt10shared_ptrIN7libyang9Type_EnumEESaIS3_EED2Ev@Base 0.16.52
 (optional)_ZNSt6vectorISt4pairISt8functionIFN7libyang7Context21mod_missing_cb_returnEPKcS6_S6_S6_EES1_IFvPvEEESaISC_EE17_M_realloc_insertIJKS8_KSB_EEEvN9__gnu_cxx17__normal_iteratorIPSC_SE_EEDpOT_@Base 0.16.52
 (optional)_ZNSt6vectorISt4pairISt8functionIFN7libyang7Context21mod_missing_cb_returnEPKcS6_S6_S6_EES1_IFvPvEEESaISC_EED1Ev@Base 0.16.52
 (optional)_ZNSt6vectorISt4pairISt8functionIFN7libyang7Context21mod_missing_cb_returnEPKcS6_S6_S6_EES1_IFvPvEEESaISC_EED2Ev@Base 0.16.52
 (optional)_ZTISt23_Sp_counted_ptr_inplaceIN7libyang10Refine_ModESaIS1_ELN9__gnu_cxx12_Lock_policyE2EE@Base 0.16.52
 (optional)_ZTISt23_Sp_counted_ptr_inplaceIN7libyang11Schema_NodeESaIS1_ELN9__gnu_cxx12_Lock_policyE2EE@Base 0.16.52
 (optional)_ZTISt23_Sp_counted_ptr_inplaceIN7libyang12Ext_InstanceESaIS1_ELN9__gnu_cxx12_Lock_policyE2EE@Base 0.16.52
 (optional)_ZTISt23_Sp_counted_ptr_inplaceIN7libyang13Type_Info_NumESaIS1_ELN9__gnu_cxx12_Lock_policyE2EE@Base 0.16.52
 (optional)_ZTISt23_Sp_counted_ptr_inplaceIN7libyang13Type_Info_StrESaIS1_ELN9__gnu_cxx12_Lock_policyE2EE@Base 0.16.52
 (optional)_ZTISt23_Sp_counted_ptr_inplaceIN7libyang14Type_Info_BitsESaIS1_ELN9__gnu_cxx12_Lock_policyE2EE@Base 0.16.52
 (optional)_ZTISt23_Sp_counted_ptr_inplaceIN7libyang14Type_Info_InstESaIS1_ELN9__gnu_cxx12_Lock_policyE2EE@Base 0.16.52
 (optional)_ZTISt23_Sp_counted_ptr_inplaceIN7libyang14Type_Info_LrefESaIS1_ELN9__gnu_cxx12_Lock_policyE2EE@Base 0.16.52
 (optional)_ZTISt23_Sp_counted_ptr_inplaceIN7libyang15Refine_Mod_ListESaIS1_ELN9__gnu_cxx12_Lock_policyE2EE@Base 0.16.52
 (optional)_ZTISt23_Sp_counted_ptr_inplaceIN7libyang15Schema_Node_GrpESaIS1_ELN9__gnu_cxx12_Lock_policyE2EE@Base 0.16.52
 (optional)_ZTISt23_Sp_counted_ptr_inplaceIN7libyang15Type_Info_Dec64ESaIS1_ELN9__gnu_cxx12_Lock_policyE2EE@Base 0.16.52
 (optional)_ZTISt23_Sp_counted_ptr_inplaceIN7libyang15Type_Info_EnumsESaIS1_ELN9__gnu_cxx12_Lock_policyE2EE@Base 0.16.52
 (optional)_ZTISt23_Sp_counted_ptr_inplaceIN7libyang15Type_Info_IdentESaIS1_ELN9__gnu_cxx12_Lock_policyE2EE@Base 0.16.52
 (optional)_ZTISt23_Sp_counted_ptr_inplaceIN7libyang15Type_Info_UnionESaIS1_ELN9__gnu_cxx12_Lock_policyE2EE@Base 0.16.52
 (optional)_ZTISt23_Sp_counted_ptr_inplaceIN7libyang16Schema_Node_LeafESaIS1_ELN9__gnu_cxx12_Lock_policyE2EE@Base 0.16.52
 (optional)_ZTISt23_Sp_counted_ptr_inplaceIN7libyang16Schema_Node_ListESaIS1_ELN9__gnu_cxx12_Lock_policyE2EE@Base 0.16.52
 (optional)_ZTISt23_Sp_counted_ptr_inplaceIN7libyang16Type_Info_BinaryESaIS1_ELN9__gnu_cxx12_Lock_policyE2EE@Base 0.16.52
 (optional)_ZTISt23_Sp_counted_ptr_inplaceIN7libyang19Schema_Node_AugmentESaIS1_ELN9__gnu_cxx12_Lock_policyE2EE@Base 0.16.52
 (optional)_ZTISt23_Sp_counted_ptr_inplaceIN7libyang3SetESaIS1_ELN9__gnu_cxx12_Lock_policyE2EE@Base 0.16.52
 (optional)_ZTISt23_Sp_counted_ptr_inplaceIN7libyang4AttrESaIS1_ELN9__gnu_cxx12_Lock_policyE2EE@Base 0.16.52
 (optional)_ZTISt23_Sp_counted_ptr_inplaceIN7libyang4TpdfESaIS1_ELN9__gnu_cxx12_Lock_policyE2EE@Base 0.16.52
 (optional)_ZTISt23_Sp_counted_ptr_inplaceIN7libyang4TypeESaIS1_ELN9__gnu_cxx12_Lock_policyE2EE@Base 0.16.52
 (optional)_ZTISt23_Sp_counted_ptr_inplaceIN7libyang4WhenESaIS1_ELN9__gnu_cxx12_Lock_policyE2EE@Base 0.16.52
 (optional)_ZTISt23_Sp_counted_ptr_inplaceIN7libyang5ErrorESaIS1_ELN9__gnu_cxx12_Lock_policyE2EE@Base 0.16.52
 (optional)_ZTISt23_Sp_counted_ptr_inplaceIN7libyang5IdentESaIS1_ELN9__gnu_cxx12_Lock_policyE2EE@Base 0.16.52
 (optional)_ZTISt23_Sp_counted_ptr_inplaceIN7libyang5RestrESaIS1_ELN9__gnu_cxx12_Lock_policyE2EE@Base 0.16.52
 (optional)_ZTISt23_Sp_counted_ptr_inplaceIN7libyang5ValueESaIS1_ELN9__gnu_cxx12_Lock_policyE2EE@Base 0.16.52
 (optional)_ZTISt23_Sp_counted_ptr_inplaceIN7libyang6ModuleESaIS1_ELN9__gnu_cxx12_Lock_policyE2EE@Base 0.16.52
 (optional)_ZTISt23_Sp_counted_ptr_inplaceIN7libyang6RefineESaIS1_ELN9__gnu_cxx12_Lock_policyE2EE@Base 0.16.52
 (optional)_ZTISt23_Sp_counted_ptr_inplaceIN7libyang6UniqueESaIS1_ELN9__gnu_cxx12_Lock_policyE2EE@Base 0.16.52
 (optional)_ZTISt23_Sp_counted_ptr_inplaceIN7libyang6Xml_NsESaIS1_ELN9__gnu_cxx12_Lock_policyE2EE@Base 0.16.52
 (optional)_ZTISt23_Sp_counted_ptr_inplaceIN7libyang7ContextESaIS1_ELN9__gnu_cxx12_Lock_policyE2EE@Base 0.16.52
 (optional)_ZTISt23_Sp_counted_ptr_inplaceIN7libyang7DeleterESaIS1_ELN9__gnu_cxx12_Lock_policyE2EE@Base 0.16.52
 (optional)_ZTISt23_Sp_counted_ptr_inplaceIN7libyang7DeviateESaIS1_ELN9__gnu_cxx12_Lock_policyE2EE@Base 0.16.52
 (optional)_ZTISt23_Sp_counted_ptr_inplaceIN7libyang7FeatureESaIS1_ELN9__gnu_cxx12_Lock_policyE2EE@Base 0.16.52
 (optional)_ZTISt23_Sp_counted_ptr_inplaceIN7libyang8DifflistESaIS1_ELN9__gnu_cxx12_Lock_policyE2EE@Base 0.16.52
 (optional)_ZTISt23_Sp_counted_ptr_inplaceIN7libyang8RevisionESaIS1_ELN9__gnu_cxx12_Lock_policyE2EE@Base 0.16.52
 (optional)_ZTISt23_Sp_counted_ptr_inplaceIN7libyang8Type_BitESaIS1_ELN9__gnu_cxx12_Lock_policyE2EE@Base 0.16.52
 (optional)_ZTISt23_Sp_counted_ptr_inplaceIN7libyang8Xml_AttrESaIS1_ELN9__gnu_cxx12_Lock_policyE2EE@Base 0.16.52
 (optional)_ZTISt23_Sp_counted_ptr_inplaceIN7libyang8Xml_ElemESaIS1_ELN9__gnu_cxx12_Lock_policyE2EE@Base 0.16.52
 (optional)_ZTISt23_Sp_counted_ptr_inplaceIN7libyang9Data_NodeESaIS1_ELN9__gnu_cxx12_Lock_policyE2EE@Base 0.16.52
 (optional)_ZTISt23_Sp_counted_ptr_inplaceIN7libyang9DeviationESaIS1_ELN9__gnu_cxx12_Lock_policyE2EE@Base 0.16.52
 (optional)_ZTISt23_Sp_counted_ptr_inplaceIN7libyang9IffeatureESaIS1_ELN9__gnu_cxx12_Lock_policyE2EE@Base 0.16.52
 (optional)_ZTISt23_Sp_counted_ptr_inplaceIN7libyang9SubmoduleESaIS1_ELN9__gnu_cxx12_Lock_policyE2EE@Base 0.16.52
 (optional)_ZTISt23_Sp_counted_ptr_inplaceIN7libyang9Type_EnumESaIS1_ELN9__gnu_cxx12_Lock_policyE2EE@Base 0.16.52
 (optional)_ZTISt23_Sp_counted_ptr_inplaceIN7libyang9Type_InfoESaIS1_ELN9__gnu_cxx12_Lock_policyE2EE@Base 0.16.52
 (optional)_ZTSSt23_Sp_counted_ptr_inplaceIN7libyang10Refine_ModESaIS1_ELN9__gnu_cxx12_Lock_policyE2EE@Base 0.16.52
 (optional)_ZTSSt23_Sp_counted_ptr_inplaceIN7libyang11Schema_NodeESaIS1_ELN9__gnu_cxx12_Lock_policyE2EE@Base 0.16.52
 (optional)_ZTSSt23_Sp_counted_ptr_inplaceIN7libyang12Ext_InstanceESaIS1_ELN9__gnu_cxx12_Lock_policyE2EE@Base 0.16.52
 (optional)_ZTSSt23_Sp_counted_ptr_inplaceIN7libyang13Type_Info_NumESaIS1_ELN9__gnu_cxx12_Lock_policyE2EE@Base 0.16.52
 (optional)_ZTSSt23_Sp_counted_ptr_inplaceIN7libyang13Type_Info_StrESaIS1_ELN9__gnu_cxx12_Lock_policyE2EE@Base 0.16.52
 (optional)_ZTSSt23_Sp_counted_ptr_inplaceIN7libyang14Type_Info_BitsESaIS1_ELN9__gnu_cxx12_Lock_policyE2EE@Base 0.16.52
 (optional)_ZTSSt23_Sp_counted_ptr_inplaceIN7libyang14Type_Info_InstESaIS1_ELN9__gnu_cxx12_Lock_policyE2EE@Base 0.16.52
 (optional)_ZTSSt23_Sp_counted_ptr_inplaceIN7libyang14Type_Info_LrefESaIS1_ELN9__gnu_cxx12_Lock_policyE2EE@Base 0.16.52
 (optional)_ZTSSt23_Sp_counted_ptr_inplaceIN7libyang15Refine_Mod_ListESaIS1_ELN9__gnu_cxx12_Lock_policyE2EE@Base 0.16.52
 (optional)_ZTSSt23_Sp_counted_ptr_inplaceIN7libyang15Schema_Node_GrpESaIS1_ELN9__gnu_cxx12_Lock_policyE2EE@Base 0.16.52
 (optional)_ZTSSt23_Sp_counted_ptr_inplaceIN7libyang15Type_Info_Dec64ESaIS1_ELN9__gnu_cxx12_Lock_policyE2EE@Base 0.16.52
 (optional)_ZTSSt23_Sp_counted_ptr_inplaceIN7libyang15Type_Info_EnumsESaIS1_ELN9__gnu_cxx12_Lock_policyE2EE@Base 0.16.52
 (optional)_ZTSSt23_Sp_counted_ptr_inplaceIN7libyang15Type_Info_IdentESaIS1_ELN9__gnu_cxx12_Lock_policyE2EE@Base 0.16.52
 (optional)_ZTSSt23_Sp_counted_ptr_inplaceIN7libyang15Type_Info_UnionESaIS1_ELN9__gnu_cxx12_Lock_policyE2EE@Base 0.16.52
 (optional)_ZTSSt23_Sp_counted_ptr_inplaceIN7libyang16Schema_Node_LeafESaIS1_ELN9__gnu_cxx12_Lock_policyE2EE@Base 0.16.52
 (optional)_ZTSSt23_Sp_counted_ptr_inplaceIN7libyang16Schema_Node_ListESaIS1_ELN9__gnu_cxx12_Lock_policyE2EE@Base 0.16.52
 (optional)_ZTSSt23_Sp_counted_ptr_inplaceIN7libyang16Type_Info_BinaryESaIS1_ELN9__gnu_cxx12_Lock_policyE2EE@Base 0.16.52
 (optional)_ZTSSt23_Sp_counted_ptr_inplaceIN7libyang19Schema_Node_AugmentESaIS1_ELN9__gnu_cxx12_Lock_policyE2EE@Base 0.16.52
 (optional)_ZTSSt23_Sp_counted_ptr_inplaceIN7libyang3SetESaIS1_ELN9__gnu_cxx12_Lock_policyE2EE@Base 0.16.52
 (optional)_ZTSSt23_Sp_counted_ptr_inplaceIN7libyang4AttrESaIS1_ELN9__gnu_cxx12_Lock_policyE2EE@Base 0.16.52
 (optional)_ZTSSt23_Sp_counted_ptr_inplaceIN7libyang4TpdfESaIS1_ELN9__gnu_cxx12_Lock_policyE2EE@Base 0.16.52
 (optional)_ZTSSt23_Sp_counted_ptr_inplaceIN7libyang4TypeESaIS1_ELN9__gnu_cxx12_Lock_policyE2EE@Base 0.16.52
 (optional)_ZTSSt23_Sp_counted_ptr_inplaceIN7libyang4WhenESaIS1_ELN9__gnu_cxx12_Lock_policyE2EE@Base 0.16.52
 (optional)_ZTSSt23_Sp_counted_ptr_inplaceIN7libyang5ErrorESaIS1_ELN9__gnu_cxx12_Lock_policyE2EE@Base 0.16.52
 (optional)_ZTSSt23_Sp_counted_ptr_inplaceIN7libyang5IdentESaIS1_ELN9__gnu_cxx12_Lock_policyE2EE@Base 0.16.52
 (optional)_ZTSSt23_Sp_counted_ptr_inplaceIN7libyang5RestrESaIS1_ELN9__gnu_cxx12_Lock_policyE2EE@Base 0.16.52
 (optional)_ZTSSt23_Sp_counted_ptr_inplaceIN7libyang5ValueESaIS1_ELN9__gnu_cxx12_Lock_policyE2EE@Base 0.16.52
 (optional)_ZTSSt23_Sp_counted_ptr_inplaceIN7libyang6ModuleESaIS1_ELN9__gnu_cxx12_Lock_policyE2EE@Base 0.16.52
 (optional)_ZTSSt23_Sp_counted_ptr_inplaceIN7libyang6RefineESaIS1_ELN9__gnu_cxx12_Lock_policyE2EE@Base 0.16.52
 (optional)_ZTSSt23_Sp_counted_ptr_inplaceIN7libyang6UniqueESaIS1_ELN9__gnu_cxx12_Lock_policyE2EE@Base 0.16.52
 (optional)_ZTSSt23_Sp_counted_ptr_inplaceIN7libyang6Xml_NsESaIS1_ELN9__gnu_cxx12_Lock_policyE2EE@Base 0.16.52
 (optional)_ZTSSt23_Sp_counted_ptr_inplaceIN7libyang7ContextESaIS1_ELN9__gnu_cxx12_Lock_policyE2EE@Base 0.16.52
 (optional)_ZTSSt23_Sp_counted_ptr_inplaceIN7libyang7DeleterESaIS1_ELN9__gnu_cxx12_Lock_policyE2EE@Base 0.16.52
 (optional)_ZTSSt23_Sp_counted_ptr_inplaceIN7libyang7DeviateESaIS1_ELN9__gnu_cxx12_Lock_policyE2EE@Base 0.16.52
 (optional)_ZTSSt23_Sp_counted_ptr_inplaceIN7libyang7FeatureESaIS1_ELN9__gnu_cxx12_Lock_policyE2EE@Base 0.16.52
 (optional)_ZTSSt23_Sp_counted_ptr_inplaceIN7libyang8DifflistESaIS1_ELN9__gnu_cxx12_Lock_policyE2EE@Base 0.16.52
 (optional)_ZTSSt23_Sp_counted_ptr_inplaceIN7libyang8RevisionESaIS1_ELN9__gnu_cxx12_Lock_policyE2EE@Base 0.16.52
 (optional)_ZTSSt23_Sp_counted_ptr_inplaceIN7libyang8Type_BitESaIS1_ELN9__gnu_cxx12_Lock_policyE2EE@Base 0.16.52
 (optional)_ZTSSt23_Sp_counted_ptr_inplaceIN7libyang8Xml_AttrESaIS1_ELN9__gnu_cxx12_Lock_policyE2EE@Base 0.16.52
 (optional)_ZTSSt23_Sp_counted_ptr_inplaceIN7libyang8Xml_ElemESaIS1_ELN9__gnu_cxx12_Lock_policyE2EE@Base 0.16.52
 (optional)_ZTSSt23_Sp_counted_ptr_inplaceIN7libyang9Data_NodeESaIS1_ELN9__gnu_cxx12_Lock_policyE2EE@Base 0.16.52
 (optional)_ZTSSt23_Sp_counted_ptr_inplaceIN7libyang9DeviationESaIS1_ELN9__gnu_cxx12_Lock_policyE2EE@Base 0.16.52
 (optional)_ZTSSt23_Sp_counted_ptr_inplaceIN7libyang9IffeatureESaIS1_ELN9__gnu_cxx12_Lock_policyE2EE@Base 0.16.52
 (optional)_ZTSSt23_Sp_counted_ptr_inplaceIN7libyang9SubmoduleESaIS1_ELN9__gnu_cxx12_Lock_policyE2EE@Base 0.16.52
 (optional)_ZTSSt23_Sp_counted_ptr_inplaceIN7libyang9Type_EnumESaIS1_ELN9__gnu_cxx12_Lock_policyE2EE@Base 0.16.52
 (optional)_ZTSSt23_Sp_counted_ptr_inplaceIN7libyang9Type_InfoESaIS1_ELN9__gnu_cxx12_Lock_policyE2EE@Base 0.16.52
 (optional)_ZTVSt23_Sp_counted_ptr_inplaceIN7libyang10Refine_ModESaIS1_ELN9__gnu_cxx12_Lock_policyE2EE@Base 0.16.52
 (optional)_ZTVSt23_Sp_counted_ptr_inplaceIN7libyang11Schema_NodeESaIS1_ELN9__gnu_cxx12_Lock_policyE2EE@Base 0.16.52
 (optional)_ZTVSt23_Sp_counted_ptr_inplaceIN7libyang12Ext_InstanceESaIS1_ELN9__gnu_cxx12_Lock_policyE2EE@Base 0.16.52
 (optional)_ZTVSt23_Sp_counted_ptr_inplaceIN7libyang13Type_Info_NumESaIS1_ELN9__gnu_cxx12_Lock_policyE2EE@Base 0.16.52
 (optional)_ZTVSt23_Sp_counted_ptr_inplaceIN7libyang13Type_Info_StrESaIS1_ELN9__gnu_cxx12_Lock_policyE2EE@Base 0.16.52
 (optional)_ZTVSt23_Sp_counted_ptr_inplaceIN7libyang14Type_Info_BitsESaIS1_ELN9__gnu_cxx12_Lock_policyE2EE@Base 0.16.52
 (optional)_ZTVSt23_Sp_counted_ptr_inplaceIN7libyang14Type_Info_InstESaIS1_ELN9__gnu_cxx12_Lock_policyE2EE@Base 0.16.52
 (optional)_ZTVSt23_Sp_counted_ptr_inplaceIN7libyang14Type_Info_LrefESaIS1_ELN9__gnu_cxx12_Lock_policyE2EE@Base 0.16.52
 (optional)_ZTVSt23_Sp_counted_ptr_inplaceIN7libyang15Refine_Mod_ListESaIS1_ELN9__gnu_cxx12_Lock_policyE2EE@Base 0.16.52
 (optional)_ZTVSt23_Sp_counted_ptr_inplaceIN7libyang15Schema_Node_GrpESaIS1_ELN9__gnu_cxx12_Lock_policyE2EE@Base 0.16.52
 (optional)_ZTVSt23_Sp_counted_ptr_inplaceIN7libyang15Type_Info_Dec64ESaIS1_ELN9__gnu_cxx12_Lock_policyE2EE@Base 0.16.52
 (optional)_ZTVSt23_Sp_counted_ptr_inplaceIN7libyang15Type_Info_EnumsESaIS1_ELN9__gnu_cxx12_Lock_policyE2EE@Base 0.16.52
 (optional)_ZTVSt23_Sp_counted_ptr_inplaceIN7libyang15Type_Info_IdentESaIS1_ELN9__gnu_cxx12_Lock_policyE2EE@Base 0.16.52
 (optional)_ZTVSt23_Sp_counted_ptr_inplaceIN7libyang15Type_Info_UnionESaIS1_ELN9__gnu_cxx12_Lock_policyE2EE@Base 0.16.52
 (optional)_ZTVSt23_Sp_counted_ptr_inplaceIN7libyang16Schema_Node_LeafESaIS1_ELN9__gnu_cxx12_Lock_policyE2EE@Base 0.16.52
 (optional)_ZTVSt23_Sp_counted_ptr_inplaceIN7libyang16Schema_Node_ListESaIS1_ELN9__gnu_cxx12_Lock_policyE2EE@Base 0.16.52
 (optional)_ZTVSt23_Sp_counted_ptr_inplaceIN7libyang16Type_Info_BinaryESaIS1_ELN9__gnu_cxx12_Lock_policyE2EE@Base 0.16.52
 (optional)_ZTVSt23_Sp_counted_ptr_inplaceIN7libyang19Schema_Node_AugmentESaIS1_ELN9__gnu_cxx12_Lock_policyE2EE@Base 0.16.52
 (optional)_ZTVSt23_Sp_counted_ptr_inplaceIN7libyang3SetESaIS1_ELN9__gnu_cxx12_Lock_policyE2EE@Base 0.16.52
 (optional)_ZTVSt23_Sp_counted_ptr_inplaceIN7libyang4AttrESaIS1_ELN9__gnu_cxx12_Lock_policyE2EE@Base 0.16.52
 (optional)_ZTVSt23_Sp_counted_ptr_inplaceIN7libyang4TpdfESaIS1_ELN9__gnu_cxx12_Lock_policyE2EE@Base 0.16.52
 (optional)_ZTVSt23_Sp_counted_ptr_inplaceIN7libyang4TypeESaIS1_ELN9__gnu_cxx12_Lock_policyE2EE@Base 0.16.52
 (optional)_ZTVSt23_Sp_counted_ptr_inplaceIN7libyang4WhenESaIS1_ELN9__gnu_cxx12_Lock_policyE2EE@Base 0.16.52
 (optional)_ZTVSt23_Sp_counted_ptr_inplaceIN7libyang5ErrorESaIS1_ELN9__gnu_cxx12_Lock_policyE2EE@Base 0.16.52
 (optional)_ZTVSt23_Sp_counted_ptr_inplaceIN7libyang5IdentESaIS1_ELN9__gnu_cxx12_Lock_policyE2EE@Base 0.16.52
 (optional)_ZTVSt23_Sp_counted_ptr_inplaceIN7libyang5RestrESaIS1_ELN9__gnu_cxx12_Lock_policyE2EE@Base 0.16.52
 (optional)_ZTVSt23_Sp_counted_ptr_inplaceIN7libyang5ValueESaIS1_ELN9__gnu_cxx12_Lock_policyE2EE@Base 0.16.52
 (optional)_ZTVSt23_Sp_counted_ptr_inplaceIN7libyang6ModuleESaIS1_ELN9__gnu_cxx12_Lock_policyE2EE@Base 0.16.52
 (optional)_ZTVSt23_Sp_counted_ptr_inplaceIN7libyang6RefineESaIS1_ELN9__gnu_cxx12_Lock_policyE2EE@Base 0.16.52
 (optional)_ZTVSt23_Sp_counted_ptr_inplaceIN7libyang6UniqueESaIS1_ELN9__gnu_cxx12_Lock_policyE2EE@Base 0.16.52
 (optional)_ZTVSt23_Sp_counted_ptr_inplaceIN7libyang6Xml_NsESaIS1_ELN9__gnu_cxx12_Lock_policyE2EE@Base 0.16.52
 (optional)_ZTVSt23_Sp_counted_ptr_inplaceIN7libyang7ContextESaIS1_ELN9__gnu_cxx12_Lock_policyE2EE@Base 0.16.52
 (optional)_ZTVSt23_Sp_counted_ptr_inplaceIN7libyang7DeleterESaIS1_ELN9__gnu_cxx12_Lock_policyE2EE@Base 0.16.52
 (optional)_ZTVSt23_Sp_counted_ptr_inplaceIN7libyang7DeviateESaIS1_ELN9__gnu_cxx12_Lock_policyE2EE@Base 0.16.52
 (optional)_ZTVSt23_Sp_counted_ptr_inplaceIN7libyang7FeatureESaIS1_ELN9__gnu_cxx12_Lock_policyE2EE@Base 0.16.52
 (optional)_ZTVSt23_Sp_counted_ptr_inplaceIN7libyang8DifflistESaIS1_ELN9__gnu_cxx12_Lock_policyE2EE@Base 0.16.52
 (optional)_ZTVSt23_Sp_counted_ptr_inplaceIN7libyang8RevisionESaIS1_ELN9__gnu_cxx12_Lock_policyE2EE@Base 0.16.52
 (optional)_ZTVSt23_Sp_counted_ptr_inplaceIN7libyang8Type_BitESaIS1_ELN9__gnu_cxx12_Lock_policyE2EE@Base 0.16.52
 (optional)_ZTVSt23_Sp_counted_ptr_inplaceIN7libyang8Xml_AttrESaIS1_ELN9__gnu_cxx12_Lock_policyE2EE@Base 0.16.52
 (optional)_ZTVSt23_Sp_counted_ptr_inplaceIN7libyang8Xml_ElemESaIS1_ELN9__gnu_cxx12_Lock_policyE2EE@Base 0.16.52
 (optional)_ZTVSt23_Sp_counted_ptr_inplaceIN7libyang9Data_NodeESaIS1_ELN9__gnu_cxx12_Lock_policyE2EE@Base 0.16.52
 (optional)_ZTVSt23_Sp_counted_ptr_inplaceIN7libyang9DeviationESaIS1_ELN9__gnu_cxx12_Lock_policyE2EE@Base 0.16.52
 (optional)_ZTVSt23_Sp_counted_ptr_inplaceIN7libyang9IffeatureESaIS1_ELN9__gnu_cxx12_Lock_policyE2EE@Base 0.16.52
 (optional)_ZTVSt23_Sp_counted_ptr_inplaceIN7libyang9SubmoduleESaIS1_ELN9__gnu_cxx12_Lock_policyE2EE@Base 0.16.52
 (optional)_ZTVSt23_Sp_counted_ptr_inplaceIN7libyang9Type_EnumESaIS1_ELN9__gnu_cxx12_Lock_policyE2EE@Base 0.16.52
 (optional)_ZTVSt23_Sp_counted_ptr_inplaceIN7libyang9Type_InfoESaIS1_ELN9__gnu_cxx12_Lock_policyE2EE@Base 0.16.52
